Archive member included because of file (symbol)

c:/Users/riedle/NDS/DEVKITPRO/libnds/lib\libnds9.a(console.o)
                              main.o (consoleDemoInit)
c:/Users/riedle/NDS/DEVKITPRO/libnds/lib\libnds9.a(initSystem.o)
                              c:/users/riedle/nds/devkitpro/devkitarm/bin/../lib/gcc/arm-none-eabi/4.7.1/../../../../arm-none-eabi/lib/thumb/ds_arm9_crt0.o (initSystem)
c:/Users/riedle/NDS/DEVKITPRO/libnds/lib\libnds9.a(fifosystem.o)
                              c:/Users/riedle/NDS/DEVKITPRO/libnds/lib\libnds9.a(initSystem.o) (fifoSendValue32)
c:/Users/riedle/NDS/DEVKITPRO/libnds/lib\libnds9.a(interrupts.o)
                              c:/Users/riedle/NDS/DEVKITPRO/libnds/lib\libnds9.a(fifosystem.o) (irqSet)
c:/Users/riedle/NDS/DEVKITPRO/libnds/lib\libnds9.a(libnds_exit.arm.o)
                              c:/users/riedle/nds/devkitpro/devkitarm/bin/../lib/gcc/arm-none-eabi/4.7.1/../../../../arm-none-eabi/lib/thumb/ds_arm9_crt0.o (__libnds_exit)
c:/Users/riedle/NDS/DEVKITPRO/libnds/lib\libnds9.a(mpu_setup.o)
                              c:/users/riedle/nds/devkitpro/devkitarm/bin/../lib/gcc/arm-none-eabi/4.7.1/../../../../arm-none-eabi/lib/thumb/ds_arm9_crt0.o (__libnds_mpu_setup)
c:/Users/riedle/NDS/DEVKITPRO/libnds/lib\libnds9.a(biosCalls.o)
                              c:/Users/riedle/NDS/DEVKITPRO/libnds/lib\libnds9.a(fifosystem.o) (swiIntrWait)
c:/Users/riedle/NDS/DEVKITPRO/libnds/lib\libnds9.a(debugprint.o)
                              c:/Users/riedle/NDS/DEVKITPRO/libnds/lib\libnds9.a(console.o) (nocashWrite)
c:/Users/riedle/NDS/DEVKITPRO/libnds/lib\libnds9.a(interruptDispatcher.o)
                              c:/Users/riedle/NDS/DEVKITPRO/libnds/lib\libnds9.a(interrupts.o) (IntrMain)
c:/Users/riedle/NDS/DEVKITPRO/libnds/lib\libnds9.a(swiSoftReset.o)
                              c:/Users/riedle/NDS/DEVKITPRO/libnds/lib\libnds9.a(fifosystem.o) (swiSoftReset)
c:/Users/riedle/NDS/DEVKITPRO/libnds/lib\libnds9.a(default_font.bin.o)
                              c:/Users/riedle/NDS/DEVKITPRO/libnds/lib\libnds9.a(console.o) (default_font_bin)
c:/Users/riedle/NDS/DEVKITPRO/libnds/lib\libnds9.a(background.o)
                              c:/Users/riedle/NDS/DEVKITPRO/libnds/lib\libnds9.a(console.o) (bgState)
c:/Users/riedle/NDS/DEVKITPRO/libnds/lib\libnds9.a(system.o)
                              c:/Users/riedle/NDS/DEVKITPRO/libnds/lib\libnds9.a(initSystem.o) (systemMsgHandler)
c:/Users/riedle/NDS/DEVKITPRO/libnds/lib\libnds9.a(trig.o)
                              c:/Users/riedle/NDS/DEVKITPRO/libnds/lib\libnds9.a(background.o) (sinLerp)
c:/Users/riedle/NDS/DEVKITPRO/libnds/lib\libnds9.a(video.o)
                              c:/Users/riedle/NDS/DEVKITPRO/libnds/lib\libnds9.a(initSystem.o) (vramDefault)
c:/users/riedle/nds/devkitpro/devkitarm/bin/../lib/gcc/arm-none-eabi/4.7.1/../../../../arm-none-eabi/lib/thumb\libstdc++.a(new_op.o)
                              main.o (operator new(unsigned int))
c:/users/riedle/nds/devkitpro/devkitarm/bin/../lib/gcc/arm-none-eabi/4.7.1/../../../../arm-none-eabi/lib/thumb\libstdc++.a(eh_call.o)
                              c:/users/riedle/nds/devkitpro/devkitarm/bin/../lib/gcc/arm-none-eabi/4.7.1/../../../../arm-none-eabi/lib/thumb\libstdc++.a(new_op.o) (__cxa_call_unexpected)
c:/users/riedle/nds/devkitpro/devkitarm/bin/../lib/gcc/arm-none-eabi/4.7.1/../../../../arm-none-eabi/lib/thumb\libstdc++.a(eh_personality.o)
                              c:/users/riedle/nds/devkitpro/devkitarm/bin/../lib/gcc/arm-none-eabi/4.7.1/../../../../arm-none-eabi/lib/thumb\libstdc++.a(new_op.o) (__gxx_personality_v0)
c:/users/riedle/nds/devkitpro/devkitarm/bin/../lib/gcc/arm-none-eabi/4.7.1/../../../../arm-none-eabi/lib/thumb\libstdc++.a(del_op.o)
                              main.o (operator delete(void*))
c:/users/riedle/nds/devkitpro/devkitarm/bin/../lib/gcc/arm-none-eabi/4.7.1/../../../../arm-none-eabi/lib/thumb\libstdc++.a(eh_terminate.o)
                              c:/users/riedle/nds/devkitpro/devkitarm/bin/../lib/gcc/arm-none-eabi/4.7.1/../../../../arm-none-eabi/lib/thumb\libstdc++.a(eh_call.o) (__cxxabiv1::__terminate(void (*)()))
c:/users/riedle/nds/devkitpro/devkitarm/bin/../lib/gcc/arm-none-eabi/4.7.1/../../../../arm-none-eabi/lib/thumb\libstdc++.a(eh_exception.o)
                              c:/users/riedle/nds/devkitpro/devkitarm/bin/../lib/gcc/arm-none-eabi/4.7.1/../../../../arm-none-eabi/lib/thumb\libstdc++.a(eh_call.o) (std::bad_exception::~bad_exception())
c:/users/riedle/nds/devkitpro/devkitarm/bin/../lib/gcc/arm-none-eabi/4.7.1/../../../../arm-none-eabi/lib/thumb\libstdc++.a(eh_alloc.o)
                              c:/users/riedle/nds/devkitpro/devkitarm/bin/../lib/gcc/arm-none-eabi/4.7.1/../../../../arm-none-eabi/lib/thumb\libstdc++.a(new_op.o) (__cxa_allocate_exception)
c:/users/riedle/nds/devkitpro/devkitarm/bin/../lib/gcc/arm-none-eabi/4.7.1/../../../../arm-none-eabi/lib/thumb\libstdc++.a(bad_alloc.o)
                              c:/users/riedle/nds/devkitpro/devkitarm/bin/../lib/gcc/arm-none-eabi/4.7.1/../../../../arm-none-eabi/lib/thumb\libstdc++.a(new_op.o) (std::bad_alloc::~bad_alloc())
c:/users/riedle/nds/devkitpro/devkitarm/bin/../lib/gcc/arm-none-eabi/4.7.1/../../../../arm-none-eabi/lib/thumb\libstdc++.a(class_type_info.o)
                              c:/users/riedle/nds/devkitpro/devkitarm/bin/../lib/gcc/arm-none-eabi/4.7.1/../../../../arm-none-eabi/lib/thumb\libstdc++.a(eh_exception.o) (vtable for __cxxabiv1::__class_type_info)
c:/users/riedle/nds/devkitpro/devkitarm/bin/../lib/gcc/arm-none-eabi/4.7.1/../../../../arm-none-eabi/lib/thumb\libstdc++.a(new_handler.o)
                              c:/users/riedle/nds/devkitpro/devkitarm/bin/../lib/gcc/arm-none-eabi/4.7.1/../../../../arm-none-eabi/lib/thumb\libstdc++.a(new_op.o) (__new_handler)
c:/users/riedle/nds/devkitpro/devkitarm/bin/../lib/gcc/arm-none-eabi/4.7.1/../../../../arm-none-eabi/lib/thumb\libstdc++.a(eh_arm.o)
                              c:/users/riedle/nds/devkitpro/devkitarm/bin/../lib/gcc/arm-none-eabi/4.7.1/../../../../arm-none-eabi/lib/thumb\libstdc++.a(new_op.o) (__cxa_end_cleanup)
c:/users/riedle/nds/devkitpro/devkitarm/bin/../lib/gcc/arm-none-eabi/4.7.1/../../../../arm-none-eabi/lib/thumb\libstdc++.a(eh_throw.o)
                              c:/users/riedle/nds/devkitpro/devkitarm/bin/../lib/gcc/arm-none-eabi/4.7.1/../../../../arm-none-eabi/lib/thumb\libstdc++.a(new_op.o) (__cxa_throw)
c:/users/riedle/nds/devkitpro/devkitarm/bin/../lib/gcc/arm-none-eabi/4.7.1/../../../../arm-none-eabi/lib/thumb\libstdc++.a(pure.o)
                              c:/users/riedle/nds/devkitpro/devkitarm/bin/../lib/gcc/arm-none-eabi/4.7.1/../../../../arm-none-eabi/lib/thumb\libstdc++.a(eh_exception.o) (__cxa_pure_virtual)
c:/users/riedle/nds/devkitpro/devkitarm/bin/../lib/gcc/arm-none-eabi/4.7.1/../../../../arm-none-eabi/lib/thumb\libstdc++.a(eh_globals.o)
                              c:/users/riedle/nds/devkitpro/devkitarm/bin/../lib/gcc/arm-none-eabi/4.7.1/../../../../arm-none-eabi/lib/thumb\libstdc++.a(eh_call.o) (__cxa_get_globals_fast)
c:/users/riedle/nds/devkitpro/devkitarm/bin/../lib/gcc/arm-none-eabi/4.7.1/../../../../arm-none-eabi/lib/thumb\libstdc++.a(eh_catch.o)
                              c:/users/riedle/nds/devkitpro/devkitarm/bin/../lib/gcc/arm-none-eabi/4.7.1/../../../../arm-none-eabi/lib/thumb\libstdc++.a(eh_call.o) (__cxa_begin_catch)
c:/users/riedle/nds/devkitpro/devkitarm/bin/../lib/gcc/arm-none-eabi/4.7.1/../../../../arm-none-eabi/lib/thumb\libstdc++.a(si_class_type_info.o)
                              c:/users/riedle/nds/devkitpro/devkitarm/bin/../lib/gcc/arm-none-eabi/4.7.1/../../../../arm-none-eabi/lib/thumb\libstdc++.a(eh_exception.o) (vtable for __cxxabiv1::__si_class_type_info)
c:/users/riedle/nds/devkitpro/devkitarm/bin/../lib/gcc/arm-none-eabi/4.7.1/../../../../arm-none-eabi/lib/thumb\libstdc++.a(eh_unex_handler.o)
                              c:/users/riedle/nds/devkitpro/devkitarm/bin/../lib/gcc/arm-none-eabi/4.7.1/../../../../arm-none-eabi/lib/thumb\libstdc++.a(eh_terminate.o) (__cxxabiv1::__unexpected_handler)
c:/users/riedle/nds/devkitpro/devkitarm/bin/../lib/gcc/arm-none-eabi/4.7.1/../../../../arm-none-eabi/lib/thumb\libstdc++.a(tinfo.o)
                              c:/users/riedle/nds/devkitpro/devkitarm/bin/../lib/gcc/arm-none-eabi/4.7.1/../../../../arm-none-eabi/lib/thumb\libstdc++.a(class_type_info.o) (std::type_info::~type_info())
c:/users/riedle/nds/devkitpro/devkitarm/bin/../lib/gcc/arm-none-eabi/4.7.1/../../../../arm-none-eabi/lib/thumb\libstdc++.a(eh_term_handler.o)
                              c:/users/riedle/nds/devkitpro/devkitarm/bin/../lib/gcc/arm-none-eabi/4.7.1/../../../../arm-none-eabi/lib/thumb\libstdc++.a(eh_terminate.o) (__cxxabiv1::__terminate_handler)
c:/users/riedle/nds/devkitpro/devkitarm/bin/../lib/gcc/arm-none-eabi/4.7.1/../../../../arm-none-eabi/lib/thumb\libstdc++.a(vterminate.o)
                              c:/users/riedle/nds/devkitpro/devkitarm/bin/../lib/gcc/arm-none-eabi/4.7.1/../../../../arm-none-eabi/lib/thumb\libstdc++.a(eh_term_handler.o) (__gnu_cxx::__verbose_terminate_handler())
c:/users/riedle/nds/devkitpro/devkitarm/bin/../lib/gcc/arm-none-eabi/4.7.1/../../../../arm-none-eabi/lib/thumb\libstdc++.a(eh_type.o)
                              c:/users/riedle/nds/devkitpro/devkitarm/bin/../lib/gcc/arm-none-eabi/4.7.1/../../../../arm-none-eabi/lib/thumb\libstdc++.a(vterminate.o) (__cxa_current_exception_type)
c:/users/riedle/nds/devkitpro/devkitarm/bin/../lib/gcc/arm-none-eabi/4.7.1/../../../../arm-none-eabi/lib/thumb\libstdc++.a(cp-demangle.o)
                              c:/users/riedle/nds/devkitpro/devkitarm/bin/../lib/gcc/arm-none-eabi/4.7.1/../../../../arm-none-eabi/lib/thumb\libstdc++.a(vterminate.o) (__cxa_demangle)
c:/users/riedle/nds/devkitpro/devkitarm/bin/../lib/gcc/arm-none-eabi/4.7.1/../../../../arm-none-eabi/lib/thumb\libm.a(lib_a-s_atan.o)
                              lmathlib.o (atan)
c:/users/riedle/nds/devkitpro/devkitarm/bin/../lib/gcc/arm-none-eabi/4.7.1/../../../../arm-none-eabi/lib/thumb\libm.a(lib_a-s_ceil.o)
                              lmathlib.o (ceil)
c:/users/riedle/nds/devkitpro/devkitarm/bin/../lib/gcc/arm-none-eabi/4.7.1/../../../../arm-none-eabi/lib/thumb\libm.a(lib_a-s_cos.o)
                              lmathlib.o (cos)
c:/users/riedle/nds/devkitpro/devkitarm/bin/../lib/gcc/arm-none-eabi/4.7.1/../../../../arm-none-eabi/lib/thumb\libm.a(lib_a-s_fabs.o)
                              c:/users/riedle/nds/devkitpro/devkitarm/bin/../lib/gcc/arm-none-eabi/4.7.1/../../../../arm-none-eabi/lib/thumb\libm.a(lib_a-s_atan.o) (fabs)
c:/users/riedle/nds/devkitpro/devkitarm/bin/../lib/gcc/arm-none-eabi/4.7.1/../../../../arm-none-eabi/lib/thumb\libm.a(lib_a-s_floor.o)
                              lmathlib.o (floor)
c:/users/riedle/nds/devkitpro/devkitarm/bin/../lib/gcc/arm-none-eabi/4.7.1/../../../../arm-none-eabi/lib/thumb\libm.a(lib_a-s_frexp.o)
                              lmathlib.o (frexp)
c:/users/riedle/nds/devkitpro/devkitarm/bin/../lib/gcc/arm-none-eabi/4.7.1/../../../../arm-none-eabi/lib/thumb\libm.a(lib_a-s_ldexp.o)
                              lmathlib.o (ldexp)
c:/users/riedle/nds/devkitpro/devkitarm/bin/../lib/gcc/arm-none-eabi/4.7.1/../../../../arm-none-eabi/lib/thumb\libm.a(lib_a-s_modf.o)
                              lmathlib.o (modf)
c:/users/riedle/nds/devkitpro/devkitarm/bin/../lib/gcc/arm-none-eabi/4.7.1/../../../../arm-none-eabi/lib/thumb\libm.a(lib_a-s_scalbn.o)
                              c:/users/riedle/nds/devkitpro/devkitarm/bin/../lib/gcc/arm-none-eabi/4.7.1/../../../../arm-none-eabi/lib/thumb\libm.a(lib_a-s_ldexp.o) (scalbn)
c:/users/riedle/nds/devkitpro/devkitarm/bin/../lib/gcc/arm-none-eabi/4.7.1/../../../../arm-none-eabi/lib/thumb\libm.a(lib_a-s_sin.o)
                              lmathlib.o (sin)
c:/users/riedle/nds/devkitpro/devkitarm/bin/../lib/gcc/arm-none-eabi/4.7.1/../../../../arm-none-eabi/lib/thumb\libm.a(lib_a-s_tanh.o)
                              lmathlib.o (tanh)
c:/users/riedle/nds/devkitpro/devkitarm/bin/../lib/gcc/arm-none-eabi/4.7.1/../../../../arm-none-eabi/lib/thumb\libm.a(lib_a-s_tan.o)
                              lmathlib.o (tan)
c:/users/riedle/nds/devkitpro/devkitarm/bin/../lib/gcc/arm-none-eabi/4.7.1/../../../../arm-none-eabi/lib/thumb\libm.a(lib_a-w_acos.o)
                              lmathlib.o (acos)
c:/users/riedle/nds/devkitpro/devkitarm/bin/../lib/gcc/arm-none-eabi/4.7.1/../../../../arm-none-eabi/lib/thumb\libm.a(lib_a-w_asin.o)
                              lmathlib.o (asin)
c:/users/riedle/nds/devkitpro/devkitarm/bin/../lib/gcc/arm-none-eabi/4.7.1/../../../../arm-none-eabi/lib/thumb\libm.a(lib_a-w_atan2.o)
                              lmathlib.o (atan2)
c:/users/riedle/nds/devkitpro/devkitarm/bin/../lib/gcc/arm-none-eabi/4.7.1/../../../../arm-none-eabi/lib/thumb\libm.a(lib_a-w_cosh.o)
                              lmathlib.o (cosh)
c:/users/riedle/nds/devkitpro/devkitarm/bin/../lib/gcc/arm-none-eabi/4.7.1/../../../../arm-none-eabi/lib/thumb\libm.a(lib_a-w_exp.o)
                              lmathlib.o (exp)
c:/users/riedle/nds/devkitpro/devkitarm/bin/../lib/gcc/arm-none-eabi/4.7.1/../../../../arm-none-eabi/lib/thumb\libm.a(lib_a-w_fmod.o)
                              lmathlib.o (fmod)
c:/users/riedle/nds/devkitpro/devkitarm/bin/../lib/gcc/arm-none-eabi/4.7.1/../../../../arm-none-eabi/lib/thumb\libm.a(lib_a-w_log10.o)
                              lmathlib.o (log10)
c:/users/riedle/nds/devkitpro/devkitarm/bin/../lib/gcc/arm-none-eabi/4.7.1/../../../../arm-none-eabi/lib/thumb\libm.a(lib_a-w_log.o)
                              lmathlib.o (log)
c:/users/riedle/nds/devkitpro/devkitarm/bin/../lib/gcc/arm-none-eabi/4.7.1/../../../../arm-none-eabi/lib/thumb\libm.a(lib_a-w_pow.o)
                              lmathlib.o (pow)
c:/users/riedle/nds/devkitpro/devkitarm/bin/../lib/gcc/arm-none-eabi/4.7.1/../../../../arm-none-eabi/lib/thumb\libm.a(lib_a-w_sinh.o)
                              lmathlib.o (sinh)
c:/users/riedle/nds/devkitpro/devkitarm/bin/../lib/gcc/arm-none-eabi/4.7.1/../../../../arm-none-eabi/lib/thumb\libm.a(lib_a-w_sqrt.o)
                              lmathlib.o (sqrt)
c:/users/riedle/nds/devkitpro/devkitarm/bin/../lib/gcc/arm-none-eabi/4.7.1/../../../../arm-none-eabi/lib/thumb\libm.a(lib_a-e_acos.o)
                              c:/users/riedle/nds/devkitpro/devkitarm/bin/../lib/gcc/arm-none-eabi/4.7.1/../../../../arm-none-eabi/lib/thumb\libm.a(lib_a-w_acos.o) (__ieee754_acos)
c:/users/riedle/nds/devkitpro/devkitarm/bin/../lib/gcc/arm-none-eabi/4.7.1/../../../../arm-none-eabi/lib/thumb\libm.a(lib_a-e_asin.o)
                              c:/users/riedle/nds/devkitpro/devkitarm/bin/../lib/gcc/arm-none-eabi/4.7.1/../../../../arm-none-eabi/lib/thumb\libm.a(lib_a-w_asin.o) (__ieee754_asin)
c:/users/riedle/nds/devkitpro/devkitarm/bin/../lib/gcc/arm-none-eabi/4.7.1/../../../../arm-none-eabi/lib/thumb\libm.a(lib_a-e_atan2.o)
                              c:/users/riedle/nds/devkitpro/devkitarm/bin/../lib/gcc/arm-none-eabi/4.7.1/../../../../arm-none-eabi/lib/thumb\libm.a(lib_a-w_atan2.o) (__ieee754_atan2)
c:/users/riedle/nds/devkitpro/devkitarm/bin/../lib/gcc/arm-none-eabi/4.7.1/../../../../arm-none-eabi/lib/thumb\libm.a(lib_a-e_cosh.o)
                              c:/users/riedle/nds/devkitpro/devkitarm/bin/../lib/gcc/arm-none-eabi/4.7.1/../../../../arm-none-eabi/lib/thumb\libm.a(lib_a-w_cosh.o) (__ieee754_cosh)
c:/users/riedle/nds/devkitpro/devkitarm/bin/../lib/gcc/arm-none-eabi/4.7.1/../../../../arm-none-eabi/lib/thumb\libm.a(lib_a-e_exp.o)
                              c:/users/riedle/nds/devkitpro/devkitarm/bin/../lib/gcc/arm-none-eabi/4.7.1/../../../../arm-none-eabi/lib/thumb\libm.a(lib_a-w_exp.o) (__ieee754_exp)
c:/users/riedle/nds/devkitpro/devkitarm/bin/../lib/gcc/arm-none-eabi/4.7.1/../../../../arm-none-eabi/lib/thumb\libm.a(lib_a-e_fmod.o)
                              c:/users/riedle/nds/devkitpro/devkitarm/bin/../lib/gcc/arm-none-eabi/4.7.1/../../../../arm-none-eabi/lib/thumb\libm.a(lib_a-w_fmod.o) (__ieee754_fmod)
c:/users/riedle/nds/devkitpro/devkitarm/bin/../lib/gcc/arm-none-eabi/4.7.1/../../../../arm-none-eabi/lib/thumb\libm.a(lib_a-e_log10.o)
                              c:/users/riedle/nds/devkitpro/devkitarm/bin/../lib/gcc/arm-none-eabi/4.7.1/../../../../arm-none-eabi/lib/thumb\libm.a(lib_a-w_log10.o) (__ieee754_log10)
c:/users/riedle/nds/devkitpro/devkitarm/bin/../lib/gcc/arm-none-eabi/4.7.1/../../../../arm-none-eabi/lib/thumb\libm.a(lib_a-e_log.o)
                              c:/users/riedle/nds/devkitpro/devkitarm/bin/../lib/gcc/arm-none-eabi/4.7.1/../../../../arm-none-eabi/lib/thumb\libm.a(lib_a-w_log.o) (__ieee754_log)
c:/users/riedle/nds/devkitpro/devkitarm/bin/../lib/gcc/arm-none-eabi/4.7.1/../../../../arm-none-eabi/lib/thumb\libm.a(lib_a-e_pow.o)
                              c:/users/riedle/nds/devkitpro/devkitarm/bin/../lib/gcc/arm-none-eabi/4.7.1/../../../../arm-none-eabi/lib/thumb\libm.a(lib_a-w_pow.o) (__ieee754_pow)
c:/users/riedle/nds/devkitpro/devkitarm/bin/../lib/gcc/arm-none-eabi/4.7.1/../../../../arm-none-eabi/lib/thumb\libm.a(lib_a-e_rem_pio2.o)
                              c:/users/riedle/nds/devkitpro/devkitarm/bin/../lib/gcc/arm-none-eabi/4.7.1/../../../../arm-none-eabi/lib/thumb\libm.a(lib_a-s_cos.o) (__ieee754_rem_pio2)
c:/users/riedle/nds/devkitpro/devkitarm/bin/../lib/gcc/arm-none-eabi/4.7.1/../../../../arm-none-eabi/lib/thumb\libm.a(lib_a-e_sinh.o)
                              c:/users/riedle/nds/devkitpro/devkitarm/bin/../lib/gcc/arm-none-eabi/4.7.1/../../../../arm-none-eabi/lib/thumb\libm.a(lib_a-w_sinh.o) (__ieee754_sinh)
c:/users/riedle/nds/devkitpro/devkitarm/bin/../lib/gcc/arm-none-eabi/4.7.1/../../../../arm-none-eabi/lib/thumb\libm.a(lib_a-e_sqrt.o)
                              c:/users/riedle/nds/devkitpro/devkitarm/bin/../lib/gcc/arm-none-eabi/4.7.1/../../../../arm-none-eabi/lib/thumb\libm.a(lib_a-w_sqrt.o) (__ieee754_sqrt)
c:/users/riedle/nds/devkitpro/devkitarm/bin/../lib/gcc/arm-none-eabi/4.7.1/../../../../arm-none-eabi/lib/thumb\libm.a(lib_a-k_cos.o)
                              c:/users/riedle/nds/devkitpro/devkitarm/bin/../lib/gcc/arm-none-eabi/4.7.1/../../../../arm-none-eabi/lib/thumb\libm.a(lib_a-s_cos.o) (__kernel_cos)
c:/users/riedle/nds/devkitpro/devkitarm/bin/../lib/gcc/arm-none-eabi/4.7.1/../../../../arm-none-eabi/lib/thumb\libm.a(lib_a-k_rem_pio2.o)
                              c:/users/riedle/nds/devkitpro/devkitarm/bin/../lib/gcc/arm-none-eabi/4.7.1/../../../../arm-none-eabi/lib/thumb\libm.a(lib_a-e_rem_pio2.o) (__kernel_rem_pio2)
c:/users/riedle/nds/devkitpro/devkitarm/bin/../lib/gcc/arm-none-eabi/4.7.1/../../../../arm-none-eabi/lib/thumb\libm.a(lib_a-k_sin.o)
                              c:/users/riedle/nds/devkitpro/devkitarm/bin/../lib/gcc/arm-none-eabi/4.7.1/../../../../arm-none-eabi/lib/thumb\libm.a(lib_a-s_cos.o) (__kernel_sin)
c:/users/riedle/nds/devkitpro/devkitarm/bin/../lib/gcc/arm-none-eabi/4.7.1/../../../../arm-none-eabi/lib/thumb\libm.a(lib_a-k_tan.o)
                              c:/users/riedle/nds/devkitpro/devkitarm/bin/../lib/gcc/arm-none-eabi/4.7.1/../../../../arm-none-eabi/lib/thumb\libm.a(lib_a-s_tan.o) (__kernel_tan)
c:/users/riedle/nds/devkitpro/devkitarm/bin/../lib/gcc/arm-none-eabi/4.7.1/../../../../arm-none-eabi/lib/thumb\libm.a(lib_a-s_copysign.o)
                              c:/users/riedle/nds/devkitpro/devkitarm/bin/../lib/gcc/arm-none-eabi/4.7.1/../../../../arm-none-eabi/lib/thumb\libm.a(lib_a-s_scalbn.o) (copysign)
c:/users/riedle/nds/devkitpro/devkitarm/bin/../lib/gcc/arm-none-eabi/4.7.1/../../../../arm-none-eabi/lib/thumb\libm.a(lib_a-s_expm1.o)
                              c:/users/riedle/nds/devkitpro/devkitarm/bin/../lib/gcc/arm-none-eabi/4.7.1/../../../../arm-none-eabi/lib/thumb\libm.a(lib_a-s_tanh.o) (expm1)
c:/users/riedle/nds/devkitpro/devkitarm/bin/../lib/gcc/arm-none-eabi/4.7.1/../../../../arm-none-eabi/lib/thumb\libm.a(lib_a-s_finite.o)
                              c:/users/riedle/nds/devkitpro/devkitarm/bin/../lib/gcc/arm-none-eabi/4.7.1/../../../../arm-none-eabi/lib/thumb\libm.a(lib_a-s_ldexp.o) (finite)
c:/users/riedle/nds/devkitpro/devkitarm/bin/../lib/gcc/arm-none-eabi/4.7.1/../../../../arm-none-eabi/lib/thumb\libm.a(lib_a-s_fpclassify.o)
                              c:/users/riedle/nds/devkitpro/devkitarm/bin/../lib/gcc/arm-none-eabi/4.7.1/../../../../arm-none-eabi/lib/thumb\libm.a(lib_a-w_acos.o) (__fpclassifyd)
c:/users/riedle/nds/devkitpro/devkitarm/bin/../lib/gcc/arm-none-eabi/4.7.1/../../../../arm-none-eabi/lib/thumb\libm.a(lib_a-s_lib_ver.o)
                              c:/users/riedle/nds/devkitpro/devkitarm/bin/../lib/gcc/arm-none-eabi/4.7.1/../../../../arm-none-eabi/lib/thumb\libm.a(lib_a-w_acos.o) (__fdlib_version)
c:/users/riedle/nds/devkitpro/devkitarm/bin/../lib/gcc/arm-none-eabi/4.7.1/../../../../arm-none-eabi/lib/thumb\libm.a(lib_a-s_matherr.o)
                              c:/users/riedle/nds/devkitpro/devkitarm/bin/../lib/gcc/arm-none-eabi/4.7.1/../../../../arm-none-eabi/lib/thumb\libm.a(lib_a-w_acos.o) (matherr)
c:/users/riedle/nds/devkitpro/devkitarm/bin/../lib/gcc/arm-none-eabi/4.7.1/../../../../arm-none-eabi/lib/thumb\libm.a(lib_a-s_nan.o)
                              c:/users/riedle/nds/devkitpro/devkitarm/bin/../lib/gcc/arm-none-eabi/4.7.1/../../../../arm-none-eabi/lib/thumb\libm.a(lib_a-w_acos.o) (nan)
c:/users/riedle/nds/devkitpro/devkitarm/bin/../lib/gcc/arm-none-eabi/4.7.1/../../../../arm-none-eabi/lib/thumb\libm.a(lib_a-s_rint.o)
                              c:/users/riedle/nds/devkitpro/devkitarm/bin/../lib/gcc/arm-none-eabi/4.7.1/../../../../arm-none-eabi/lib/thumb\libm.a(lib_a-w_pow.o) (rint)
c:/users/riedle/nds/devkitpro/devkitarm/bin/../lib/gcc/arm-none-eabi/4.7.1/thumb\libgcc.a(_udivsi3.o)
                              lgc.o (__aeabi_uidiv)
c:/users/riedle/nds/devkitpro/devkitarm/bin/../lib/gcc/arm-none-eabi/4.7.1/thumb\libgcc.a(_divsi3.o)
                              lcode.o (__aeabi_idiv)
c:/users/riedle/nds/devkitpro/devkitarm/bin/../lib/gcc/arm-none-eabi/4.7.1/thumb\libgcc.a(_dvmd_tls.o)
                              c:/users/riedle/nds/devkitpro/devkitarm/bin/../lib/gcc/arm-none-eabi/4.7.1/thumb\libgcc.a(_udivsi3.o) (__aeabi_idiv0)
c:/users/riedle/nds/devkitpro/devkitarm/bin/../lib/gcc/arm-none-eabi/4.7.1/thumb\libgcc.a(_arm_addsubdf3.o)
                              lmathlib.o (__aeabi_dsub)
c:/users/riedle/nds/devkitpro/devkitarm/bin/../lib/gcc/arm-none-eabi/4.7.1/thumb\libgcc.a(_arm_muldivdf3.o)
                              lbaselib.o (__aeabi_dmul)
c:/users/riedle/nds/devkitpro/devkitarm/bin/../lib/gcc/arm-none-eabi/4.7.1/thumb\libgcc.a(_arm_cmpdf2.o)
                              lauxlib.o (__aeabi_dcmpeq)
c:/users/riedle/nds/devkitpro/devkitarm/bin/../lib/gcc/arm-none-eabi/4.7.1/thumb\libgcc.a(_arm_fixdfsi.o)
                              main.o (__aeabi_d2iz)
c:/users/riedle/nds/devkitpro/devkitarm/bin/../lib/gcc/arm-none-eabi/4.7.1/thumb\libgcc.a(_arm_fixunsdfsi.o)
                              lstrlib.o (__aeabi_d2uiz)
c:/users/riedle/nds/devkitpro/devkitarm/bin/../lib/gcc/arm-none-eabi/4.7.1/thumb\libgcc.a(unwind-arm.o)
                              c:/users/riedle/nds/devkitpro/devkitarm/bin/../lib/gcc/arm-none-eabi/4.7.1/../../../../arm-none-eabi/lib/thumb\libstdc++.a(eh_personality.o) (__aeabi_unwind_cpp_pr0)
c:/users/riedle/nds/devkitpro/devkitarm/bin/../lib/gcc/arm-none-eabi/4.7.1/thumb\libgcc.a(libunwind.o)
                              c:/users/riedle/nds/devkitpro/devkitarm/bin/../lib/gcc/arm-none-eabi/4.7.1/thumb\libgcc.a(unwind-arm.o) (restore_core_regs)
c:/users/riedle/nds/devkitpro/devkitarm/bin/../lib/gcc/arm-none-eabi/4.7.1/thumb\libgcc.a(pr-support.o)
                              c:/users/riedle/nds/devkitpro/devkitarm/bin/../lib/gcc/arm-none-eabi/4.7.1/thumb\libgcc.a(unwind-arm.o) (__gnu_unwind_execute)
c:/users/riedle/nds/devkitpro/devkitarm/bin/../lib/gcc/arm-none-eabi/4.7.1/../../../../arm-none-eabi/lib/thumb\libg.a(lib_a-abort.o)
                              ldo.o (abort)
c:/users/riedle/nds/devkitpro/devkitarm/bin/../lib/gcc/arm-none-eabi/4.7.1/../../../../arm-none-eabi/lib/thumb\libg.a(lib_a-bsearch.o)
                              c:/Users/riedle/NDS/DEVKITPRO/libnds/lib\libnds9.a(trig.o) (bsearch)
c:/users/riedle/nds/devkitpro/devkitarm/bin/../lib/gcc/arm-none-eabi/4.7.1/../../../../arm-none-eabi/lib/thumb\libg.a(lib_a-clock.o)
                              loslib.o (clock)
c:/users/riedle/nds/devkitpro/devkitarm/bin/../lib/gcc/arm-none-eabi/4.7.1/../../../../arm-none-eabi/lib/thumb\libg.a(lib_a-ctype_.o)
                              lbaselib.o (__ctype_ptr__)
c:/users/riedle/nds/devkitpro/devkitarm/bin/../lib/gcc/arm-none-eabi/4.7.1/../../../../arm-none-eabi/lib/thumb\libg.a(lib_a-difftime.o)
                              loslib.o (difftime)
c:/users/riedle/nds/devkitpro/devkitarm/bin/../lib/gcc/arm-none-eabi/4.7.1/../../../../arm-none-eabi/lib/thumb\libg.a(lib_a-errno.o)
                              lauxlib.o (__errno)
c:/users/riedle/nds/devkitpro/devkitarm/bin/../lib/gcc/arm-none-eabi/4.7.1/../../../../arm-none-eabi/lib/thumb\libg.a(lib_a-exit.o)
                              loslib.o (exit)
c:/users/riedle/nds/devkitpro/devkitarm/bin/../lib/gcc/arm-none-eabi/4.7.1/../../../../arm-none-eabi/lib/thumb\libg.a(lib_a-fclose.o)
                              lauxlib.o (fclose)
c:/users/riedle/nds/devkitpro/devkitarm/bin/../lib/gcc/arm-none-eabi/4.7.1/../../../../arm-none-eabi/lib/thumb\libg.a(lib_a-fflush.o)
                              c:/users/riedle/nds/devkitpro/devkitarm/bin/../lib/gcc/arm-none-eabi/4.7.1/../../../../arm-none-eabi/lib/thumb\libg.a(lib_a-fclose.o) (_fflush_r)
c:/users/riedle/nds/devkitpro/devkitarm/bin/../lib/gcc/arm-none-eabi/4.7.1/../../../../arm-none-eabi/lib/thumb\libg.a(lib_a-fgets.o)
                              ldblib.o (fgets)
c:/users/riedle/nds/devkitpro/devkitarm/bin/../lib/gcc/arm-none-eabi/4.7.1/../../../../arm-none-eabi/lib/thumb\libg.a(lib_a-findfp.o)
                              c:/users/riedle/nds/devkitpro/devkitarm/bin/../lib/gcc/arm-none-eabi/4.7.1/../../../../arm-none-eabi/lib/thumb\libg.a(lib_a-fclose.o) (__sinit)
c:/users/riedle/nds/devkitpro/devkitarm/bin/../lib/gcc/arm-none-eabi/4.7.1/../../../../arm-none-eabi/lib/thumb\libg.a(lib_a-fopen.o)
                              lauxlib.o (fopen)
c:/users/riedle/nds/devkitpro/devkitarm/bin/../lib/gcc/arm-none-eabi/4.7.1/../../../../arm-none-eabi/lib/thumb\libg.a(lib_a-fprintf.o)
                              lauxlib.o (fprintf)
c:/users/riedle/nds/devkitpro/devkitarm/bin/../lib/gcc/arm-none-eabi/4.7.1/../../../../arm-none-eabi/lib/thumb\libg.a(lib_a-fputc.o)
                              c:/users/riedle/nds/devkitpro/devkitarm/bin/../lib/gcc/arm-none-eabi/4.7.1/../../../../arm-none-eabi/lib/thumb\libstdc++.a(vterminate.o) (fputc)
c:/users/riedle/nds/devkitpro/devkitarm/bin/../lib/gcc/arm-none-eabi/4.7.1/../../../../arm-none-eabi/lib/thumb\libg.a(lib_a-fputs.o)
                              c:/users/riedle/nds/devkitpro/devkitarm/bin/../lib/gcc/arm-none-eabi/4.7.1/../../../../arm-none-eabi/lib/thumb\libstdc++.a(vterminate.o) (fputs)
c:/users/riedle/nds/devkitpro/devkitarm/bin/../lib/gcc/arm-none-eabi/4.7.1/../../../../arm-none-eabi/lib/thumb\libg.a(lib_a-fread.o)
                              lauxlib.o (fread)
c:/users/riedle/nds/devkitpro/devkitarm/bin/../lib/gcc/arm-none-eabi/4.7.1/../../../../arm-none-eabi/lib/thumb\libg.a(lib_a-freer.o)
                              c:/users/riedle/nds/devkitpro/devkitarm/bin/../lib/gcc/arm-none-eabi/4.7.1/../../../../arm-none-eabi/lib/thumb\libg.a(lib_a-fclose.o) (_free_r)
c:/users/riedle/nds/devkitpro/devkitarm/bin/../lib/gcc/arm-none-eabi/4.7.1/../../../../arm-none-eabi/lib/thumb\libg.a(lib_a-freopen.o)
                              lauxlib.o (freopen)
c:/users/riedle/nds/devkitpro/devkitarm/bin/../lib/gcc/arm-none-eabi/4.7.1/../../../../arm-none-eabi/lib/thumb\libg.a(lib_a-fscanf.o)
                              liolib.o (fscanf)
c:/users/riedle/nds/devkitpro/devkitarm/bin/../lib/gcc/arm-none-eabi/4.7.1/../../../../arm-none-eabi/lib/thumb\libg.a(lib_a-fseek.o)
                              c:/users/riedle/nds/devkitpro/devkitarm/bin/../lib/gcc/arm-none-eabi/4.7.1/../../../../arm-none-eabi/lib/thumb\libg.a(lib_a-fopen.o) (_fseek_r)
c:/users/riedle/nds/devkitpro/devkitarm/bin/../lib/gcc/arm-none-eabi/4.7.1/../../../../arm-none-eabi/lib/thumb\libg.a(lib_a-ftell.o)
                              liolib.o (ftell)
c:/users/riedle/nds/devkitpro/devkitarm/bin/../lib/gcc/arm-none-eabi/4.7.1/../../../../arm-none-eabi/lib/thumb\libg.a(lib_a-fvwrite.o)
                              c:/users/riedle/nds/devkitpro/devkitarm/bin/../lib/gcc/arm-none-eabi/4.7.1/../../../../arm-none-eabi/lib/thumb\libg.a(lib_a-fputs.o) (__sfvwrite_r)
c:/users/riedle/nds/devkitpro/devkitarm/bin/../lib/gcc/arm-none-eabi/4.7.1/../../../../arm-none-eabi/lib/thumb\libg.a(lib_a-fwalk.o)
                              c:/users/riedle/nds/devkitpro/devkitarm/bin/../lib/gcc/arm-none-eabi/4.7.1/../../../../arm-none-eabi/lib/thumb\libg.a(lib_a-findfp.o) (_fwalk)
c:/users/riedle/nds/devkitpro/devkitarm/bin/../lib/gcc/arm-none-eabi/4.7.1/../../../../arm-none-eabi/lib/thumb\libg.a(lib_a-fwrite.o)
                              lbaselib.o (fwrite)
c:/users/riedle/nds/devkitpro/devkitarm/bin/../lib/gcc/arm-none-eabi/4.7.1/../../../../arm-none-eabi/lib/thumb\libg.a(lib_a-getenv.o)
                              loadlib.o (getenv)
c:/users/riedle/nds/devkitpro/devkitarm/bin/../lib/gcc/arm-none-eabi/4.7.1/../../../../arm-none-eabi/lib/thumb\libg.a(lib_a-getenv_r.o)
                              c:/users/riedle/nds/devkitpro/devkitarm/bin/../lib/gcc/arm-none-eabi/4.7.1/../../../../arm-none-eabi/lib/thumb\libg.a(lib_a-getenv.o) (_findenv_r)
c:/users/riedle/nds/devkitpro/devkitarm/bin/../lib/gcc/arm-none-eabi/4.7.1/../../../../arm-none-eabi/lib/thumb\libg.a(lib_a-gmtime.o)
                              loslib.o (gmtime)
c:/users/riedle/nds/devkitpro/devkitarm/bin/../lib/gcc/arm-none-eabi/4.7.1/../../../../arm-none-eabi/lib/thumb\libg.a(lib_a-gmtime_r.o)
                              c:/users/riedle/nds/devkitpro/devkitarm/bin/../lib/gcc/arm-none-eabi/4.7.1/../../../../arm-none-eabi/lib/thumb\libg.a(lib_a-gmtime.o) (gmtime_r)
c:/users/riedle/nds/devkitpro/devkitarm/bin/../lib/gcc/arm-none-eabi/4.7.1/../../../../arm-none-eabi/lib/thumb\libg.a(lib_a-impure.o)
                              c:/users/riedle/nds/devkitpro/devkitarm/bin/../lib/gcc/arm-none-eabi/4.7.1/../../../../arm-none-eabi/lib/thumb\libg.a(lib_a-exit.o) (_global_impure_ptr)
c:/users/riedle/nds/devkitpro/devkitarm/bin/../lib/gcc/arm-none-eabi/4.7.1/../../../../arm-none-eabi/lib/thumb\libg.a(lib_a-init.o)
                              c:/users/riedle/nds/devkitpro/devkitarm/bin/../lib/gcc/arm-none-eabi/4.7.1/../../../../arm-none-eabi/lib/thumb/ds_arm9_crt0.o (__libc_init_array)
c:/users/riedle/nds/devkitpro/devkitarm/bin/../lib/gcc/arm-none-eabi/4.7.1/../../../../arm-none-eabi/lib/thumb\libg.a(lib_a-iprintf.o)
                              c:/Users/riedle/NDS/DEVKITPRO/libnds/lib\libnds9.a(console.o) (iprintf)
c:/users/riedle/nds/devkitpro/devkitarm/bin/../lib/gcc/arm-none-eabi/4.7.1/../../../../arm-none-eabi/lib/thumb\libg.a(lib_a-lcltime.o)
                              loslib.o (localtime)
c:/users/riedle/nds/devkitpro/devkitarm/bin/../lib/gcc/arm-none-eabi/4.7.1/../../../../arm-none-eabi/lib/thumb\libg.a(lib_a-lcltime_r.o)
                              c:/users/riedle/nds/devkitpro/devkitarm/bin/../lib/gcc/arm-none-eabi/4.7.1/../../../../arm-none-eabi/lib/thumb\libg.a(lib_a-lcltime.o) (localtime_r)
c:/users/riedle/nds/devkitpro/devkitarm/bin/../lib/gcc/arm-none-eabi/4.7.1/../../../../arm-none-eabi/lib/thumb\libg.a(lib_a-locale.o)
                              loslib.o (setlocale)
c:/users/riedle/nds/devkitpro/devkitarm/bin/../lib/gcc/arm-none-eabi/4.7.1/../../../../arm-none-eabi/lib/thumb\libg.a(lib_a-makebuf.o)
                              c:/users/riedle/nds/devkitpro/devkitarm/bin/../lib/gcc/arm-none-eabi/4.7.1/../../../../arm-none-eabi/lib/thumb\libg.a(lib_a-fseek.o) (__smakebuf_r)
c:/users/riedle/nds/devkitpro/devkitarm/bin/../lib/gcc/arm-none-eabi/4.7.1/../../../../arm-none-eabi/lib/thumb\libg.a(lib_a-malloc.o)
                              c:/users/riedle/nds/devkitpro/devkitarm/bin/../lib/gcc/arm-none-eabi/4.7.1/../../../../arm-none-eabi/lib/thumb\libstdc++.a(new_op.o) (malloc)
c:/users/riedle/nds/devkitpro/devkitarm/bin/../lib/gcc/arm-none-eabi/4.7.1/../../../../arm-none-eabi/lib/thumb\libg.a(lib_a-mallocr.o)
                              c:/users/riedle/nds/devkitpro/devkitarm/bin/../lib/gcc/arm-none-eabi/4.7.1/../../../../arm-none-eabi/lib/thumb\libg.a(lib_a-findfp.o) (_malloc_r)
c:/users/riedle/nds/devkitpro/devkitarm/bin/../lib/gcc/arm-none-eabi/4.7.1/../../../../arm-none-eabi/lib/thumb\libg.a(lib_a-mbtowc_r.o)
                              c:/users/riedle/nds/devkitpro/devkitarm/bin/../lib/gcc/arm-none-eabi/4.7.1/../../../../arm-none-eabi/lib/thumb\libg.a(lib_a-locale.o) (__utf8_mbtowc)
c:/users/riedle/nds/devkitpro/devkitarm/bin/../lib/gcc/arm-none-eabi/4.7.1/../../../../arm-none-eabi/lib/thumb\libg.a(lib_a-memchr-stub.o)
                              lstrlib.o (memchr)
c:/users/riedle/nds/devkitpro/devkitarm/bin/../lib/gcc/arm-none-eabi/4.7.1/../../../../arm-none-eabi/lib/thumb\libg.a(lib_a-memcmp.o)
                              lstring.o (memcmp)
c:/users/riedle/nds/devkitpro/devkitarm/bin/../lib/gcc/arm-none-eabi/4.7.1/../../../../arm-none-eabi/lib/thumb\libg.a(lib_a-memcpy-stub.o)
                              lauxlib.o (memcpy)
c:/users/riedle/nds/devkitpro/devkitarm/bin/../lib/gcc/arm-none-eabi/4.7.1/../../../../arm-none-eabi/lib/thumb\libg.a(lib_a-memmove.o)
                              c:/users/riedle/nds/devkitpro/devkitarm/bin/../lib/gcc/arm-none-eabi/4.7.1/../../../../arm-none-eabi/lib/thumb\libg.a(lib_a-fvwrite.o) (memmove)
c:/users/riedle/nds/devkitpro/devkitarm/bin/../lib/gcc/arm-none-eabi/4.7.1/../../../../arm-none-eabi/lib/thumb\libg.a(lib_a-memset.o)
                              c:/users/riedle/nds/devkitpro/devkitarm/bin/../lib/gcc/arm-none-eabi/4.7.1/../../../../arm-none-eabi/lib/thumb\libstdc++.a(eh_alloc.o) (memset)
c:/users/riedle/nds/devkitpro/devkitarm/bin/../lib/gcc/arm-none-eabi/4.7.1/../../../../arm-none-eabi/lib/thumb\libg.a(lib_a-mktime.o)
                              loslib.o (mktime)
c:/users/riedle/nds/devkitpro/devkitarm/bin/../lib/gcc/arm-none-eabi/4.7.1/../../../../arm-none-eabi/lib/thumb\libg.a(lib_a-mktm_r.o)
                              c:/users/riedle/nds/devkitpro/devkitarm/bin/../lib/gcc/arm-none-eabi/4.7.1/../../../../arm-none-eabi/lib/thumb\libg.a(lib_a-mktime.o) (__tzcalc_limits)
c:/users/riedle/nds/devkitpro/devkitarm/bin/../lib/gcc/arm-none-eabi/4.7.1/../../../../arm-none-eabi/lib/thumb\libg.a(lib_a-mlock.o)
                              c:/users/riedle/nds/devkitpro/devkitarm/bin/../lib/gcc/arm-none-eabi/4.7.1/../../../../arm-none-eabi/lib/thumb\libg.a(lib_a-freer.o) (__malloc_lock)
c:/users/riedle/nds/devkitpro/devkitarm/bin/../lib/gcc/arm-none-eabi/4.7.1/../../../../arm-none-eabi/lib/thumb\libg.a(lib_a-printf.o)
                              main.o (printf)
c:/users/riedle/nds/devkitpro/devkitarm/bin/../lib/gcc/arm-none-eabi/4.7.1/../../../../arm-none-eabi/lib/thumb\libg.a(lib_a-putc.o)
                              c:/users/riedle/nds/devkitpro/devkitarm/bin/../lib/gcc/arm-none-eabi/4.7.1/../../../../arm-none-eabi/lib/thumb\libg.a(lib_a-fputc.o) (_putc_r)
c:/users/riedle/nds/devkitpro/devkitarm/bin/../lib/gcc/arm-none-eabi/4.7.1/../../../../arm-none-eabi/lib/thumb\libg.a(lib_a-rand.o)
                              lmathlib.o (srand)
c:/users/riedle/nds/devkitpro/devkitarm/bin/../lib/gcc/arm-none-eabi/4.7.1/../../../../arm-none-eabi/lib/thumb\libg.a(lib_a-realloc.o)
                              lauxlib.o (realloc)
c:/users/riedle/nds/devkitpro/devkitarm/bin/../lib/gcc/arm-none-eabi/4.7.1/../../../../arm-none-eabi/lib/thumb\libg.a(lib_a-reallocr.o)
                              c:/users/riedle/nds/devkitpro/devkitarm/bin/../lib/gcc/arm-none-eabi/4.7.1/../../../../arm-none-eabi/lib/thumb\libg.a(lib_a-fvwrite.o) (_realloc_r)
c:/users/riedle/nds/devkitpro/devkitarm/bin/../lib/gcc/arm-none-eabi/4.7.1/../../../../arm-none-eabi/lib/thumb\libg.a(lib_a-refill.o)
                              c:/users/riedle/nds/devkitpro/devkitarm/bin/../lib/gcc/arm-none-eabi/4.7.1/../../../../arm-none-eabi/lib/thumb\libg.a(lib_a-fgets.o) (__srefill_r)
c:/users/riedle/nds/devkitpro/devkitarm/bin/../lib/gcc/arm-none-eabi/4.7.1/../../../../arm-none-eabi/lib/thumb\libg.a(lib_a-remove.o)
                              loslib.o (remove)
c:/users/riedle/nds/devkitpro/devkitarm/bin/../lib/gcc/arm-none-eabi/4.7.1/../../../../arm-none-eabi/lib/thumb\libg.a(lib_a-rename.o)
                              loslib.o (rename)
c:/users/riedle/nds/devkitpro/devkitarm/bin/../lib/gcc/arm-none-eabi/4.7.1/../../../../arm-none-eabi/lib/thumb\libg.a(lib_a-rget.o)
                              lauxlib.o (__srget_r)
c:/users/riedle/nds/devkitpro/devkitarm/bin/../lib/gcc/arm-none-eabi/4.7.1/../../../../arm-none-eabi/lib/thumb\libg.a(lib_a-setjmp.o)
                              ldo.o (setjmp)
c:/users/riedle/nds/devkitpro/devkitarm/bin/../lib/gcc/arm-none-eabi/4.7.1/../../../../arm-none-eabi/lib/thumb\libg.a(lib_a-setvbuf.o)
                              liolib.o (setvbuf)
c:/users/riedle/nds/devkitpro/devkitarm/bin/../lib/gcc/arm-none-eabi/4.7.1/../../../../arm-none-eabi/lib/thumb\libg.a(lib_a-signal.o)
                              c:/users/riedle/nds/devkitpro/devkitarm/bin/../lib/gcc/arm-none-eabi/4.7.1/../../../../arm-none-eabi/lib/thumb\libg.a(lib_a-abort.o) (raise)
c:/users/riedle/nds/devkitpro/devkitarm/bin/../lib/gcc/arm-none-eabi/4.7.1/../../../../arm-none-eabi/lib/thumb\libg.a(lib_a-siscanf.o)
                              c:/Users/riedle/NDS/DEVKITPRO/libnds/lib\libnds9.a(console.o) (siscanf)
c:/users/riedle/nds/devkitpro/devkitarm/bin/../lib/gcc/arm-none-eabi/4.7.1/../../../../arm-none-eabi/lib/thumb\libg.a(lib_a-sprintf.o)
                              lobject.o (sprintf)
c:/users/riedle/nds/devkitpro/devkitarm/bin/../lib/gcc/arm-none-eabi/4.7.1/../../../../arm-none-eabi/lib/thumb\libg.a(lib_a-stdio.o)
                              c:/users/riedle/nds/devkitpro/devkitarm/bin/../lib/gcc/arm-none-eabi/4.7.1/../../../../arm-none-eabi/lib/thumb\libg.a(lib_a-findfp.o) (__sread)
c:/users/riedle/nds/devkitpro/devkitarm/bin/../lib/gcc/arm-none-eabi/4.7.1/../../../../arm-none-eabi/lib/thumb\libg.a(lib_a-strcasecmp.o)
                              c:/users/riedle/nds/devkitpro/devkitarm/bin/../lib/gcc/arm-none-eabi/4.7.1/../../../../arm-none-eabi/lib/thumb\libg.a(lib_a-locale.o) (strcasecmp)
c:/users/riedle/nds/devkitpro/devkitarm/bin/../lib/gcc/arm-none-eabi/4.7.1/../../../../arm-none-eabi/lib/thumb\libg.a(lib_a-strcat.o)
                              c:/users/riedle/nds/devkitpro/devkitarm/bin/../lib/gcc/arm-none-eabi/4.7.1/../../../../arm-none-eabi/lib/thumb\libg.a(lib_a-locale.o) (strcat)
c:/users/riedle/nds/devkitpro/devkitarm/bin/../lib/gcc/arm-none-eabi/4.7.1/../../../../arm-none-eabi/lib/thumb\libg.a(lib_a-strchr.o)
                              ldblib.o (strchr)
c:/users/riedle/nds/devkitpro/devkitarm/bin/../lib/gcc/arm-none-eabi/4.7.1/../../../../arm-none-eabi/lib/thumb\libg.a(lib_a-strcmp.o)
                              lauxlib.o (strcmp)
c:/users/riedle/nds/devkitpro/devkitarm/bin/../lib/gcc/arm-none-eabi/4.7.1/../../../../arm-none-eabi/lib/thumb\libg.a(lib_a-strcoll.o)
                              lvm.o (strcoll)
c:/users/riedle/nds/devkitpro/devkitarm/bin/../lib/gcc/arm-none-eabi/4.7.1/../../../../arm-none-eabi/lib/thumb\libg.a(lib_a-strcpy.o)
                              c:/users/riedle/nds/devkitpro/devkitarm/bin/../lib/gcc/arm-none-eabi/4.7.1/../../../../arm-none-eabi/lib/thumb\libg.a(lib_a-locale.o) (strcpy)
c:/users/riedle/nds/devkitpro/devkitarm/bin/../lib/gcc/arm-none-eabi/4.7.1/../../../../arm-none-eabi/lib/thumb\libg.a(lib_a-strerror.o)
                              lauxlib.o (strerror)
c:/users/riedle/nds/devkitpro/devkitarm/bin/../lib/gcc/arm-none-eabi/4.7.1/../../../../arm-none-eabi/lib/thumb\libg.a(lib_a-strftime.o)
                              loslib.o (strftime)
c:/users/riedle/nds/devkitpro/devkitarm/bin/../lib/gcc/arm-none-eabi/4.7.1/../../../../arm-none-eabi/lib/thumb\libg.a(lib_a-strlcpy.o)
                              c:/users/riedle/nds/devkitpro/devkitarm/bin/../lib/gcc/arm-none-eabi/4.7.1/../../../../arm-none-eabi/lib/thumb\libg.a(lib_a-locale.o) (strlcpy)
c:/users/riedle/nds/devkitpro/devkitarm/bin/../lib/gcc/arm-none-eabi/4.7.1/../../../../arm-none-eabi/lib/thumb\libg.a(lib_a-strlen.o)
                              lauxlib.o (strlen)
c:/users/riedle/nds/devkitpro/devkitarm/bin/../lib/gcc/arm-none-eabi/4.7.1/../../../../arm-none-eabi/lib/thumb\libg.a(lib_a-strncasecmp.o)
                              c:/users/riedle/nds/devkitpro/devkitarm/bin/../lib/gcc/arm-none-eabi/4.7.1/../../../../arm-none-eabi/lib/thumb\libg.a(lib_a-locale.o) (strncasecmp)
c:/users/riedle/nds/devkitpro/devkitarm/bin/../lib/gcc/arm-none-eabi/4.7.1/../../../../arm-none-eabi/lib/thumb\libg.a(lib_a-strncmp.o)
                              c:/users/riedle/nds/devkitpro/devkitarm/bin/../lib/gcc/arm-none-eabi/4.7.1/../../../../arm-none-eabi/lib/thumb\libstdc++.a(cp-demangle.o) (strncmp)
c:/users/riedle/nds/devkitpro/devkitarm/bin/../lib/gcc/arm-none-eabi/4.7.1/../../../../arm-none-eabi/lib/thumb\libg.a(lib_a-strncpy.o)
                              c:/users/riedle/nds/devkitpro/devkitarm/bin/../lib/gcc/arm-none-eabi/4.7.1/../../../../arm-none-eabi/lib/thumb\libg.a(lib_a-locale.o) (strncpy)
c:/users/riedle/nds/devkitpro/devkitarm/bin/../lib/gcc/arm-none-eabi/4.7.1/../../../../arm-none-eabi/lib/thumb\libg.a(lib_a-strpbrk.o)
                              lobject.o (strpbrk)
c:/users/riedle/nds/devkitpro/devkitarm/bin/../lib/gcc/arm-none-eabi/4.7.1/../../../../arm-none-eabi/lib/thumb\libg.a(lib_a-strspn.o)
                              lbaselib.o (strspn)
c:/users/riedle/nds/devkitpro/devkitarm/bin/../lib/gcc/arm-none-eabi/4.7.1/../../../../arm-none-eabi/lib/thumb\libg.a(lib_a-strstr.o)
                              lauxlib.o (strstr)
c:/users/riedle/nds/devkitpro/devkitarm/bin/../lib/gcc/arm-none-eabi/4.7.1/../../../../arm-none-eabi/lib/thumb\libg.a(lib_a-strtod.o)
                              lobject.o (strtod)
c:/users/riedle/nds/devkitpro/devkitarm/bin/../lib/gcc/arm-none-eabi/4.7.1/../../../../arm-none-eabi/lib/thumb\libg.a(lib_a-strtol.o)
                              c:/users/riedle/nds/devkitpro/devkitarm/bin/../lib/gcc/arm-none-eabi/4.7.1/../../../../arm-none-eabi/lib/thumb\libg.a(lib_a-locale.o) (_strtol_r)
c:/users/riedle/nds/devkitpro/devkitarm/bin/../lib/gcc/arm-none-eabi/4.7.1/../../../../arm-none-eabi/lib/thumb\libg.a(lib_a-strtoul.o)
                              c:/users/riedle/nds/devkitpro/devkitarm/bin/../lib/gcc/arm-none-eabi/4.7.1/../../../../arm-none-eabi/lib/thumb\libg.a(lib_a-strftime.o) (strtoul)
c:/users/riedle/nds/devkitpro/devkitarm/bin/../lib/gcc/arm-none-eabi/4.7.1/../../../../arm-none-eabi/lib/thumb\libg.a(lib_a-svfiscanf.o)
                              c:/users/riedle/nds/devkitpro/devkitarm/bin/../lib/gcc/arm-none-eabi/4.7.1/../../../../arm-none-eabi/lib/thumb\libg.a(lib_a-siscanf.o) (__ssvfiscanf_r)
c:/users/riedle/nds/devkitpro/devkitarm/bin/../lib/gcc/arm-none-eabi/4.7.1/../../../../arm-none-eabi/lib/thumb\libg.a(lib_a-svfprintf.o)
                              c:/users/riedle/nds/devkitpro/devkitarm/bin/../lib/gcc/arm-none-eabi/4.7.1/../../../../arm-none-eabi/lib/thumb\libg.a(lib_a-sprintf.o) (_svfprintf_r)
c:/users/riedle/nds/devkitpro/devkitarm/bin/../lib/gcc/arm-none-eabi/4.7.1/../../../../arm-none-eabi/lib/thumb\libg.a(lib_a-system.o)
                              loslib.o (system)
c:/users/riedle/nds/devkitpro/devkitarm/bin/../lib/gcc/arm-none-eabi/4.7.1/../../../../arm-none-eabi/lib/thumb\libg.a(lib_a-syswrite.o)
                              c:/users/riedle/nds/devkitpro/devkitarm/bin/../lib/gcc/arm-none-eabi/4.7.1/../../../../arm-none-eabi/lib/thumb\libstdc++.a(pure.o) (write)
c:/users/riedle/nds/devkitpro/devkitarm/bin/../lib/gcc/arm-none-eabi/4.7.1/../../../../arm-none-eabi/lib/thumb\libg.a(lib_a-timelocal.o)
                              c:/users/riedle/nds/devkitpro/devkitarm/bin/../lib/gcc/arm-none-eabi/4.7.1/../../../../arm-none-eabi/lib/thumb\libg.a(lib_a-strftime.o) (__get_current_time_locale)
c:/users/riedle/nds/devkitpro/devkitarm/bin/../lib/gcc/arm-none-eabi/4.7.1/../../../../arm-none-eabi/lib/thumb\libg.a(lib_a-time.o)
                              loslib.o (time)
c:/users/riedle/nds/devkitpro/devkitarm/bin/../lib/gcc/arm-none-eabi/4.7.1/../../../../arm-none-eabi/lib/thumb\libg.a(lib_a-tmpfile.o)
                              liolib.o (tmpfile)
c:/users/riedle/nds/devkitpro/devkitarm/bin/../lib/gcc/arm-none-eabi/4.7.1/../../../../arm-none-eabi/lib/thumb\libg.a(lib_a-tmpnam.o)
                              c:/users/riedle/nds/devkitpro/devkitarm/bin/../lib/gcc/arm-none-eabi/4.7.1/../../../../arm-none-eabi/lib/thumb\libg.a(lib_a-tmpfile.o) (_tmpnam_r)
c:/users/riedle/nds/devkitpro/devkitarm/bin/../lib/gcc/arm-none-eabi/4.7.1/../../../../arm-none-eabi/lib/thumb\libg.a(lib_a-tzlock.o)
                              c:/users/riedle/nds/devkitpro/devkitarm/bin/../lib/gcc/arm-none-eabi/4.7.1/../../../../arm-none-eabi/lib/thumb\libg.a(lib_a-mktime.o) (__tz_lock)
c:/users/riedle/nds/devkitpro/devkitarm/bin/../lib/gcc/arm-none-eabi/4.7.1/../../../../arm-none-eabi/lib/thumb\libg.a(lib_a-tzvars.o)
                              c:/users/riedle/nds/devkitpro/devkitarm/bin/../lib/gcc/arm-none-eabi/4.7.1/../../../../arm-none-eabi/lib/thumb\libg.a(lib_a-mktime.o) (_daylight)
c:/users/riedle/nds/devkitpro/devkitarm/bin/../lib/gcc/arm-none-eabi/4.7.1/../../../../arm-none-eabi/lib/thumb\libg.a(lib_a-ungetc.o)
                              c:/users/riedle/nds/devkitpro/devkitarm/bin/../lib/gcc/arm-none-eabi/4.7.1/../../../../arm-none-eabi/lib/thumb\libg.a(lib_a-svfiscanf.o) (__submore)
c:/users/riedle/nds/devkitpro/devkitarm/bin/../lib/gcc/arm-none-eabi/4.7.1/../../../../arm-none-eabi/lib/thumb\libg.a(lib_a-u_strerr.o)
                              c:/users/riedle/nds/devkitpro/devkitarm/bin/../lib/gcc/arm-none-eabi/4.7.1/../../../../arm-none-eabi/lib/thumb\libg.a(lib_a-strerror.o) (_user_strerror)
c:/users/riedle/nds/devkitpro/devkitarm/bin/../lib/gcc/arm-none-eabi/4.7.1/../../../../arm-none-eabi/lib/thumb\libg.a(lib_a-vfiprintf.o)
                              c:/users/riedle/nds/devkitpro/devkitarm/bin/../lib/gcc/arm-none-eabi/4.7.1/../../../../arm-none-eabi/lib/thumb\libg.a(lib_a-iprintf.o) (_vfiprintf_r)
c:/users/riedle/nds/devkitpro/devkitarm/bin/../lib/gcc/arm-none-eabi/4.7.1/../../../../arm-none-eabi/lib/thumb\libg.a(lib_a-vfprintf.o)
                              c:/users/riedle/nds/devkitpro/devkitarm/bin/../lib/gcc/arm-none-eabi/4.7.1/../../../../arm-none-eabi/lib/thumb\libg.a(lib_a-fprintf.o) (_vfprintf_r)
c:/users/riedle/nds/devkitpro/devkitarm/bin/../lib/gcc/arm-none-eabi/4.7.1/../../../../arm-none-eabi/lib/thumb\libg.a(lib_a-vfscanf.o)
                              c:/users/riedle/nds/devkitpro/devkitarm/bin/../lib/gcc/arm-none-eabi/4.7.1/../../../../arm-none-eabi/lib/thumb\libg.a(lib_a-fscanf.o) (_vfscanf_r)
c:/users/riedle/nds/devkitpro/devkitarm/bin/../lib/gcc/arm-none-eabi/4.7.1/../../../../arm-none-eabi/lib/thumb\libg.a(lib_a-wbuf.o)
                              c:/users/riedle/nds/devkitpro/devkitarm/bin/../lib/gcc/arm-none-eabi/4.7.1/../../../../arm-none-eabi/lib/thumb\libg.a(lib_a-putc.o) (__swbuf_r)
c:/users/riedle/nds/devkitpro/devkitarm/bin/../lib/gcc/arm-none-eabi/4.7.1/../../../../arm-none-eabi/lib/thumb\libg.a(lib_a-wcrtomb.o)
                              c:/users/riedle/nds/devkitpro/devkitarm/bin/../lib/gcc/arm-none-eabi/4.7.1/../../../../arm-none-eabi/lib/thumb\libg.a(lib_a-svfprintf.o) (_wcrtomb_r)
c:/users/riedle/nds/devkitpro/devkitarm/bin/../lib/gcc/arm-none-eabi/4.7.1/../../../../arm-none-eabi/lib/thumb\libg.a(lib_a-wcsrtombs.o)
                              c:/users/riedle/nds/devkitpro/devkitarm/bin/../lib/gcc/arm-none-eabi/4.7.1/../../../../arm-none-eabi/lib/thumb\libg.a(lib_a-svfprintf.o) (_wcsrtombs_r)
c:/users/riedle/nds/devkitpro/devkitarm/bin/../lib/gcc/arm-none-eabi/4.7.1/../../../../arm-none-eabi/lib/thumb\libg.a(lib_a-wctomb_r.o)
                              c:/users/riedle/nds/devkitpro/devkitarm/bin/../lib/gcc/arm-none-eabi/4.7.1/../../../../arm-none-eabi/lib/thumb\libg.a(lib_a-locale.o) (__utf8_wctomb)
c:/users/riedle/nds/devkitpro/devkitarm/bin/../lib/gcc/arm-none-eabi/4.7.1/../../../../arm-none-eabi/lib/thumb\libg.a(lib_a-wsetup.o)
                              c:/users/riedle/nds/devkitpro/devkitarm/bin/../lib/gcc/arm-none-eabi/4.7.1/../../../../arm-none-eabi/lib/thumb\libg.a(lib_a-fvwrite.o) (__swsetup_r)
c:/users/riedle/nds/devkitpro/devkitarm/bin/../lib/gcc/arm-none-eabi/4.7.1/../../../../arm-none-eabi/lib/thumb\libg.a(lib_a-abs.o)
                              c:/users/riedle/nds/devkitpro/devkitarm/bin/../lib/gcc/arm-none-eabi/4.7.1/../../../../arm-none-eabi/lib/thumb\libg.a(lib_a-strftime.o) (abs)
c:/users/riedle/nds/devkitpro/devkitarm/bin/../lib/gcc/arm-none-eabi/4.7.1/../../../../arm-none-eabi/lib/thumb\libg.a(lib_a-__call_atexit.o)
                              c:/users/riedle/nds/devkitpro/devkitarm/bin/../lib/gcc/arm-none-eabi/4.7.1/../../../../arm-none-eabi/lib/thumb\libg.a(lib_a-exit.o) (__call_exitprocs)
c:/users/riedle/nds/devkitpro/devkitarm/bin/../lib/gcc/arm-none-eabi/4.7.1/../../../../arm-none-eabi/lib/thumb\libg.a(lib_a-div.o)
                              c:/users/riedle/nds/devkitpro/devkitarm/bin/../lib/gcc/arm-none-eabi/4.7.1/../../../../arm-none-eabi/lib/thumb\libg.a(lib_a-mktime.o) (div)
c:/users/riedle/nds/devkitpro/devkitarm/bin/../lib/gcc/arm-none-eabi/4.7.1/../../../../arm-none-eabi/lib/thumb\libg.a(lib_a-dtoa.o)
                              c:/users/riedle/nds/devkitpro/devkitarm/bin/../lib/gcc/arm-none-eabi/4.7.1/../../../../arm-none-eabi/lib/thumb\libg.a(lib_a-svfprintf.o) (_dtoa_r)
c:/users/riedle/nds/devkitpro/devkitarm/bin/../lib/gcc/arm-none-eabi/4.7.1/../../../../arm-none-eabi/lib/thumb\libg.a(lib_a-environ.o)
                              c:/users/riedle/nds/devkitpro/devkitarm/bin/../lib/gcc/arm-none-eabi/4.7.1/../../../../arm-none-eabi/lib/thumb\libg.a(lib_a-getenv_r.o) (environ)
c:/users/riedle/nds/devkitpro/devkitarm/bin/../lib/gcc/arm-none-eabi/4.7.1/../../../../arm-none-eabi/lib/thumb\libg.a(lib_a-envlock.o)
                              c:/users/riedle/nds/devkitpro/devkitarm/bin/../lib/gcc/arm-none-eabi/4.7.1/../../../../arm-none-eabi/lib/thumb\libg.a(lib_a-getenv_r.o) (__env_lock)
c:/users/riedle/nds/devkitpro/devkitarm/bin/../lib/gcc/arm-none-eabi/4.7.1/../../../../arm-none-eabi/lib/thumb\libg.a(lib_a-fdopen.o)
                              c:/users/riedle/nds/devkitpro/devkitarm/bin/../lib/gcc/arm-none-eabi/4.7.1/../../../../arm-none-eabi/lib/thumb\libg.a(lib_a-tmpfile.o) (_fdopen_r)
c:/users/riedle/nds/devkitpro/devkitarm/bin/../lib/gcc/arm-none-eabi/4.7.1/../../../../arm-none-eabi/lib/thumb\libg.a(lib_a-flags.o)
                              c:/users/riedle/nds/devkitpro/devkitarm/bin/../lib/gcc/arm-none-eabi/4.7.1/../../../../arm-none-eabi/lib/thumb\libg.a(lib_a-fopen.o) (__sflags)
c:/users/riedle/nds/devkitpro/devkitarm/bin/../lib/gcc/arm-none-eabi/4.7.1/../../../../arm-none-eabi/lib/thumb\libg.a(lib_a-fputwc.o)
                              c:/users/riedle/nds/devkitpro/devkitarm/bin/../lib/gcc/arm-none-eabi/4.7.1/../../../../arm-none-eabi/lib/thumb\libg.a(lib_a-vfiprintf.o) (_fputwc_r)
c:/users/riedle/nds/devkitpro/devkitarm/bin/../lib/gcc/arm-none-eabi/4.7.1/../../../../arm-none-eabi/lib/thumb\libg.a(lib_a-gdtoa-gethex.o)
                              c:/users/riedle/nds/devkitpro/devkitarm/bin/../lib/gcc/arm-none-eabi/4.7.1/../../../../arm-none-eabi/lib/thumb\libg.a(lib_a-strtod.o) (__gethex)
c:/users/riedle/nds/devkitpro/devkitarm/bin/../lib/gcc/arm-none-eabi/4.7.1/../../../../arm-none-eabi/lib/thumb\libg.a(lib_a-gdtoa-hexnan.o)
                              c:/users/riedle/nds/devkitpro/devkitarm/bin/../lib/gcc/arm-none-eabi/4.7.1/../../../../arm-none-eabi/lib/thumb\libg.a(lib_a-strtod.o) (__hexnan)
c:/users/riedle/nds/devkitpro/devkitarm/bin/../lib/gcc/arm-none-eabi/4.7.1/../../../../arm-none-eabi/lib/thumb\libg.a(lib_a-gettzinfo.o)
                              c:/users/riedle/nds/devkitpro/devkitarm/bin/../lib/gcc/arm-none-eabi/4.7.1/../../../../arm-none-eabi/lib/thumb\libg.a(lib_a-mktime.o) (__gettzinfo)
c:/users/riedle/nds/devkitpro/devkitarm/bin/../lib/gcc/arm-none-eabi/4.7.1/../../../../arm-none-eabi/lib/thumb\libg.a(lib_a-iswspace.o)
                              c:/users/riedle/nds/devkitpro/devkitarm/bin/../lib/gcc/arm-none-eabi/4.7.1/../../../../arm-none-eabi/lib/thumb\libg.a(lib_a-svfiscanf.o) (iswspace)
c:/users/riedle/nds/devkitpro/devkitarm/bin/../lib/gcc/arm-none-eabi/4.7.1/../../../../arm-none-eabi/lib/thumb\libg.a(lib_a-jp2uc.o)
                              c:/users/riedle/nds/devkitpro/devkitarm/bin/../lib/gcc/arm-none-eabi/4.7.1/../../../../arm-none-eabi/lib/thumb\libg.a(lib_a-iswspace.o) (_jp2uc)
c:/users/riedle/nds/devkitpro/devkitarm/bin/../lib/gcc/arm-none-eabi/4.7.1/../../../../arm-none-eabi/lib/thumb\libg.a(lib_a-labs.o)
                              c:/users/riedle/nds/devkitpro/devkitarm/bin/../lib/gcc/arm-none-eabi/4.7.1/../../../../arm-none-eabi/lib/thumb\libg.a(lib_a-strftime.o) (labs)
c:/users/riedle/nds/devkitpro/devkitarm/bin/../lib/gcc/arm-none-eabi/4.7.1/../../../../arm-none-eabi/lib/thumb\libg.a(lib_a-ldpart.o)
                              c:/users/riedle/nds/devkitpro/devkitarm/bin/../lib/gcc/arm-none-eabi/4.7.1/../../../../arm-none-eabi/lib/thumb\libg.a(lib_a-timelocal.o) (__part_load_locale)
c:/users/riedle/nds/devkitpro/devkitarm/bin/../lib/gcc/arm-none-eabi/4.7.1/../../../../arm-none-eabi/lib/thumb\libg.a(lib_a-mbrtowc.o)
                              c:/users/riedle/nds/devkitpro/devkitarm/bin/../lib/gcc/arm-none-eabi/4.7.1/../../../../arm-none-eabi/lib/thumb\libg.a(lib_a-svfiscanf.o) (_mbrtowc_r)
c:/users/riedle/nds/devkitpro/devkitarm/bin/../lib/gcc/arm-none-eabi/4.7.1/../../../../arm-none-eabi/lib/thumb\libg.a(lib_a-mprec.o)
                              c:/users/riedle/nds/devkitpro/devkitarm/bin/../lib/gcc/arm-none-eabi/4.7.1/../../../../arm-none-eabi/lib/thumb\libg.a(lib_a-strtod.o) (_Balloc)
c:/users/riedle/nds/devkitpro/devkitarm/bin/../lib/gcc/arm-none-eabi/4.7.1/../../../../arm-none-eabi/lib/thumb\libg.a(lib_a-sccl.o)
                              c:/users/riedle/nds/devkitpro/devkitarm/bin/../lib/gcc/arm-none-eabi/4.7.1/../../../../arm-none-eabi/lib/thumb\libg.a(lib_a-svfiscanf.o) (__sccl)
c:/users/riedle/nds/devkitpro/devkitarm/bin/../lib/gcc/arm-none-eabi/4.7.1/../../../../arm-none-eabi/lib/thumb\libg.a(lib_a-sf_nan.o)
                              c:/users/riedle/nds/devkitpro/devkitarm/bin/../lib/gcc/arm-none-eabi/4.7.1/../../../../arm-none-eabi/lib/thumb\libg.a(lib_a-strtod.o) (nanf)
c:/users/riedle/nds/devkitpro/devkitarm/bin/../lib/gcc/arm-none-eabi/4.7.1/../../../../arm-none-eabi/lib/thumb\libg.a(lib_a-sniprintf.o)
                              c:/users/riedle/nds/devkitpro/devkitarm/bin/../lib/gcc/arm-none-eabi/4.7.1/../../../../arm-none-eabi/lib/thumb\libg.a(lib_a-strftime.o) (sniprintf)
c:/users/riedle/nds/devkitpro/devkitarm/bin/../lib/gcc/arm-none-eabi/4.7.1/../../../../arm-none-eabi/lib/thumb\libg.a(lib_a-strtoll_r.o)
                              c:/users/riedle/nds/devkitpro/devkitarm/bin/../lib/gcc/arm-none-eabi/4.7.1/../../../../arm-none-eabi/lib/thumb\libg.a(lib_a-svfiscanf.o) (_strtoll_r)
c:/users/riedle/nds/devkitpro/devkitarm/bin/../lib/gcc/arm-none-eabi/4.7.1/../../../../arm-none-eabi/lib/thumb\libg.a(lib_a-strtoull_r.o)
                              c:/users/riedle/nds/devkitpro/devkitarm/bin/../lib/gcc/arm-none-eabi/4.7.1/../../../../arm-none-eabi/lib/thumb\libg.a(lib_a-svfiscanf.o) (_strtoull_r)
c:/users/riedle/nds/devkitpro/devkitarm/bin/../lib/gcc/arm-none-eabi/4.7.1/../../../../arm-none-eabi/lib/thumb\libg.a(lib_a-svfiprintf.o)
                              c:/users/riedle/nds/devkitpro/devkitarm/bin/../lib/gcc/arm-none-eabi/4.7.1/../../../../arm-none-eabi/lib/thumb\libg.a(lib_a-svfprintf.o) (__ssprint_r)
c:/users/riedle/nds/devkitpro/devkitarm/bin/../lib/gcc/arm-none-eabi/4.7.1/../../../../arm-none-eabi/lib/thumb\libg.a(lib_a-sysclose.o)
                              c:/users/riedle/nds/devkitpro/devkitarm/bin/../lib/gcc/arm-none-eabi/4.7.1/../../../../arm-none-eabi/lib/thumb\libg.a(lib_a-ldpart.o) (close)
c:/users/riedle/nds/devkitpro/devkitarm/bin/../lib/gcc/arm-none-eabi/4.7.1/../../../../arm-none-eabi/lib/thumb\libg.a(lib_a-sysfstat.o)
                              c:/users/riedle/nds/devkitpro/devkitarm/bin/../lib/gcc/arm-none-eabi/4.7.1/../../../../arm-none-eabi/lib/thumb\libg.a(lib_a-ldpart.o) (fstat)
c:/users/riedle/nds/devkitpro/devkitarm/bin/../lib/gcc/arm-none-eabi/4.7.1/../../../../arm-none-eabi/lib/thumb\libg.a(lib_a-sysopen.o)
                              c:/users/riedle/nds/devkitpro/devkitarm/bin/../lib/gcc/arm-none-eabi/4.7.1/../../../../arm-none-eabi/lib/thumb\libg.a(lib_a-ldpart.o) (open)
c:/users/riedle/nds/devkitpro/devkitarm/bin/../lib/gcc/arm-none-eabi/4.7.1/../../../../arm-none-eabi/lib/thumb\libg.a(lib_a-sysread.o)
                              c:/users/riedle/nds/devkitpro/devkitarm/bin/../lib/gcc/arm-none-eabi/4.7.1/../../../../arm-none-eabi/lib/thumb\libg.a(lib_a-ldpart.o) (read)
c:/users/riedle/nds/devkitpro/devkitarm/bin/../lib/gcc/arm-none-eabi/4.7.1/../../../../arm-none-eabi/lib/thumb\libg.a(lib_a-wcsnrtombs.o)
                              c:/users/riedle/nds/devkitpro/devkitarm/bin/../lib/gcc/arm-none-eabi/4.7.1/../../../../arm-none-eabi/lib/thumb\libg.a(lib_a-wcsrtombs.o) (_wcsnrtombs_r)
c:/users/riedle/nds/devkitpro/devkitarm/bin/../lib/gcc/arm-none-eabi/4.7.1/../../../../arm-none-eabi/lib/thumb\libg.a(lib_a-callocr.o)
                              c:/users/riedle/nds/devkitpro/devkitarm/bin/../lib/gcc/arm-none-eabi/4.7.1/../../../../arm-none-eabi/lib/thumb\libg.a(lib_a-mprec.o) (_calloc_r)
c:/users/riedle/nds/devkitpro/devkitarm/bin/../lib/gcc/arm-none-eabi/4.7.1/../../../../arm-none-eabi/lib/thumb\libsysbase.a(iosupport.o)
                              c:/Users/riedle/NDS/DEVKITPRO/libnds/lib\libnds9.a(console.o) (devoptab_list)
c:/users/riedle/nds/devkitpro/devkitarm/bin/../lib/gcc/arm-none-eabi/4.7.1/../../../../arm-none-eabi/lib/thumb\libsysbase.a(close.o)
                              c:/users/riedle/nds/devkitpro/devkitarm/bin/../lib/gcc/arm-none-eabi/4.7.1/../../../../arm-none-eabi/lib/thumb\libg.a(lib_a-stdio.o) (_close_r)
c:/users/riedle/nds/devkitpro/devkitarm/bin/../lib/gcc/arm-none-eabi/4.7.1/../../../../arm-none-eabi/lib/thumb\libsysbase.a(fstat.o)
                              c:/users/riedle/nds/devkitpro/devkitarm/bin/../lib/gcc/arm-none-eabi/4.7.1/../../../../arm-none-eabi/lib/thumb\libg.a(lib_a-fseek.o) (_fstat_r)
c:/users/riedle/nds/devkitpro/devkitarm/bin/../lib/gcc/arm-none-eabi/4.7.1/../../../../arm-none-eabi/lib/thumb\libsysbase.a(getpid.o)
                              c:/users/riedle/nds/devkitpro/devkitarm/bin/../lib/gcc/arm-none-eabi/4.7.1/../../../../arm-none-eabi/lib/thumb\libg.a(lib_a-signal.o) (_getpid_r)
c:/users/riedle/nds/devkitpro/devkitarm/bin/../lib/gcc/arm-none-eabi/4.7.1/../../../../arm-none-eabi/lib/thumb\libsysbase.a(isatty.o)
                              c:/users/riedle/nds/devkitpro/devkitarm/bin/../lib/gcc/arm-none-eabi/4.7.1/../../../../arm-none-eabi/lib/thumb\libg.a(lib_a-makebuf.o) (_isatty_r)
c:/users/riedle/nds/devkitpro/devkitarm/bin/../lib/gcc/arm-none-eabi/4.7.1/../../../../arm-none-eabi/lib/thumb\libsysbase.a(kill.o)
                              c:/users/riedle/nds/devkitpro/devkitarm/bin/../lib/gcc/arm-none-eabi/4.7.1/../../../../arm-none-eabi/lib/thumb\libg.a(lib_a-signal.o) (_kill_r)
c:/users/riedle/nds/devkitpro/devkitarm/bin/../lib/gcc/arm-none-eabi/4.7.1/../../../../arm-none-eabi/lib/thumb\libsysbase.a(lseek.o)
                              c:/users/riedle/nds/devkitpro/devkitarm/bin/../lib/gcc/arm-none-eabi/4.7.1/../../../../arm-none-eabi/lib/thumb\libg.a(lib_a-stdio.o) (_lseek_r)
c:/users/riedle/nds/devkitpro/devkitarm/bin/../lib/gcc/arm-none-eabi/4.7.1/../../../../arm-none-eabi/lib/thumb\libsysbase.a(open.o)
                              c:/users/riedle/nds/devkitpro/devkitarm/bin/../lib/gcc/arm-none-eabi/4.7.1/../../../../arm-none-eabi/lib/thumb\libg.a(lib_a-fopen.o) (_open_r)
c:/users/riedle/nds/devkitpro/devkitarm/bin/../lib/gcc/arm-none-eabi/4.7.1/../../../../arm-none-eabi/lib/thumb\libsysbase.a(read.o)
                              c:/users/riedle/nds/devkitpro/devkitarm/bin/../lib/gcc/arm-none-eabi/4.7.1/../../../../arm-none-eabi/lib/thumb\libg.a(lib_a-stdio.o) (_read_r)
c:/users/riedle/nds/devkitpro/devkitarm/bin/../lib/gcc/arm-none-eabi/4.7.1/../../../../arm-none-eabi/lib/thumb\libsysbase.a(sbrk.o)
                              c:/users/riedle/nds/devkitpro/devkitarm/bin/../lib/gcc/arm-none-eabi/4.7.1/../../../../arm-none-eabi/lib/thumb\libg.a(lib_a-freer.o) (_sbrk_r)
c:/users/riedle/nds/devkitpro/devkitarm/bin/../lib/gcc/arm-none-eabi/4.7.1/../../../../arm-none-eabi/lib/thumb\libsysbase.a(times.o)
                              c:/users/riedle/nds/devkitpro/devkitarm/bin/../lib/gcc/arm-none-eabi/4.7.1/../../../../arm-none-eabi/lib/thumb\libg.a(lib_a-clock.o) (_times_r)
c:/users/riedle/nds/devkitpro/devkitarm/bin/../lib/gcc/arm-none-eabi/4.7.1/../../../../arm-none-eabi/lib/thumb\libsysbase.a(unlink.o)
                              c:/users/riedle/nds/devkitpro/devkitarm/bin/../lib/gcc/arm-none-eabi/4.7.1/../../../../arm-none-eabi/lib/thumb\libg.a(lib_a-remove.o) (_unlink_r)
c:/users/riedle/nds/devkitpro/devkitarm/bin/../lib/gcc/arm-none-eabi/4.7.1/../../../../arm-none-eabi/lib/thumb\libsysbase.a(write.o)
                              c:/users/riedle/nds/devkitpro/devkitarm/bin/../lib/gcc/arm-none-eabi/4.7.1/../../../../arm-none-eabi/lib/thumb\libg.a(lib_a-stdio.o) (_write_r)
c:/users/riedle/nds/devkitpro/devkitarm/bin/../lib/gcc/arm-none-eabi/4.7.1/../../../../arm-none-eabi/lib/thumb\libsysbase.a(_exit.o)
                              c:/users/riedle/nds/devkitpro/devkitarm/bin/../lib/gcc/arm-none-eabi/4.7.1/../../../../arm-none-eabi/lib/thumb\libg.a(lib_a-abort.o) (_exit)
c:/users/riedle/nds/devkitpro/devkitarm/bin/../lib/gcc/arm-none-eabi/4.7.1/../../../../arm-none-eabi/lib/thumb\libsysbase.a(malloc_vars.o)
                              c:/users/riedle/nds/devkitpro/devkitarm/bin/../lib/gcc/arm-none-eabi/4.7.1/../../../../arm-none-eabi/lib/thumb/ds_arm9_crt0.o (fake_heap_start)
c:/users/riedle/nds/devkitpro/devkitarm/bin/../lib/gcc/arm-none-eabi/4.7.1/../../../../arm-none-eabi/lib/thumb\libsysbase.a(rename.o)
                              c:/users/riedle/nds/devkitpro/devkitarm/bin/../lib/gcc/arm-none-eabi/4.7.1/../../../../arm-none-eabi/lib/thumb\libg.a(lib_a-rename.o) (_rename_r)
c:/users/riedle/nds/devkitpro/devkitarm/bin/../lib/gcc/arm-none-eabi/4.7.1/../../../../arm-none-eabi/lib/thumb\libsysbase.a(build_argv.o)
                              c:/users/riedle/nds/devkitpro/devkitarm/bin/../lib/gcc/arm-none-eabi/4.7.1/../../../../arm-none-eabi/lib/thumb/ds_arm9_crt0.o (build_argv)
c:/users/riedle/nds/devkitpro/devkitarm/bin/../lib/gcc/arm-none-eabi/4.7.1/../../../../arm-none-eabi/lib/thumb\libsysbase.a(syscall_support.o)
                              c:/Users/riedle/NDS/DEVKITPRO/libnds/lib\libnds9.a(initSystem.o) (__syscalls)
c:/users/riedle/nds/devkitpro/devkitarm/bin/../lib/gcc/arm-none-eabi/4.7.1/../../../../arm-none-eabi/lib/thumb\libsysbase.a(handle_manager.o)
                              c:/users/riedle/nds/devkitpro/devkitarm/bin/../lib/gcc/arm-none-eabi/4.7.1/../../../../arm-none-eabi/lib/thumb\libsysbase.a(close.o) (__release_handle)
c:/users/riedle/nds/devkitpro/devkitarm/bin/../lib/gcc/arm-none-eabi/4.7.1/thumb\libgcc.a(_arm_truncdfsf2.o)
                              c:/users/riedle/nds/devkitpro/devkitarm/bin/../lib/gcc/arm-none-eabi/4.7.1/../../../../arm-none-eabi/lib/thumb\libg.a(lib_a-strtod.o) (__aeabi_d2f)
c:/users/riedle/nds/devkitpro/devkitarm/bin/../lib/gcc/arm-none-eabi/4.7.1/thumb\libgcc.a(_aeabi_uldivmod.o)
                              c:/users/riedle/nds/devkitpro/devkitarm/bin/../lib/gcc/arm-none-eabi/4.7.1/../../../../arm-none-eabi/lib/thumb\libg.a(lib_a-svfprintf.o) (__aeabi_uldivmod)
c:/users/riedle/nds/devkitpro/devkitarm/bin/../lib/gcc/arm-none-eabi/4.7.1/thumb\libgcc.a(_muldi3.o)
                              c:/users/riedle/nds/devkitpro/devkitarm/bin/../lib/gcc/arm-none-eabi/4.7.1/../../../../arm-none-eabi/lib/thumb\libg.a(lib_a-rand.o) (__aeabi_lmul)
c:/users/riedle/nds/devkitpro/devkitarm/bin/../lib/gcc/arm-none-eabi/4.7.1/thumb\libgcc.a(bpabi.o)
                              c:/users/riedle/nds/devkitpro/devkitarm/bin/../lib/gcc/arm-none-eabi/4.7.1/thumb\libgcc.a(_aeabi_uldivmod.o) (__gnu_uldivmod_helper)
c:/users/riedle/nds/devkitpro/devkitarm/bin/../lib/gcc/arm-none-eabi/4.7.1/thumb\libgcc.a(_divdi3.o)
                              c:/users/riedle/nds/devkitpro/devkitarm/bin/../lib/gcc/arm-none-eabi/4.7.1/thumb\libgcc.a(bpabi.o) (__divdi3)
c:/users/riedle/nds/devkitpro/devkitarm/bin/../lib/gcc/arm-none-eabi/4.7.1/thumb\libgcc.a(_udivdi3.o)
                              c:/users/riedle/nds/devkitpro/devkitarm/bin/../lib/gcc/arm-none-eabi/4.7.1/thumb\libgcc.a(bpabi.o) (__udivdi3)
c:/users/riedle/nds/devkitpro/devkitarm/bin/../lib/gcc/arm-none-eabi/4.7.1/thumb\libgcc.a(_clzsi2.o)
                              c:/users/riedle/nds/devkitpro/devkitarm/bin/../lib/gcc/arm-none-eabi/4.7.1/thumb\libgcc.a(_divdi3.o) (__clzsi2)

Allocating common symbols
Common symbol       size              file

currentCopy         0x5c              c:/Users/riedle/NDS/DEVKITPRO/libnds/lib\libnds9.a(console.o)
fifo_datamsg_data   0x40              c:/Users/riedle/NDS/DEVKITPRO/libnds/lib\libnds9.a(fifosystem.o)
__dsimode           0x1               c:/Users/riedle/NDS/DEVKITPRO/libnds/lib\libnds9.a(initSystem.o)
bgState             0x140             c:/Users/riedle/NDS/DEVKITPRO/libnds/lib\libnds9.a(background.o)
fifo_buffer         0x800             c:/Users/riedle/NDS/DEVKITPRO/libnds/lib\libnds9.a(fifosystem.o)
bgIsTextLut         0x8               c:/Users/riedle/NDS/DEVKITPRO/libnds/lib\libnds9.a(background.o)
fifo_value32_func   0x40              c:/Users/riedle/NDS/DEVKITPRO/libnds/lib\libnds9.a(fifosystem.o)
fifo_address_func   0x40              c:/Users/riedle/NDS/DEVKITPRO/libnds/lib\libnds9.a(fifosystem.o)
__hexdig            0x100             c:/users/riedle/nds/devkitpro/devkitarm/bin/../lib/gcc/arm-none-eabi/4.7.1/../../../../arm-none-eabi/lib/thumb\libg.a(lib_a-gdtoa-gethex.o)
fifo_value32_data   0x40              c:/Users/riedle/NDS/DEVKITPRO/libnds/lib\libnds9.a(fifosystem.o)
fifo_value32_queue  0x40              c:/Users/riedle/NDS/DEVKITPRO/libnds/lib\libnds9.a(fifosystem.o)
fifo_data_queue     0x40              c:/Users/riedle/NDS/DEVKITPRO/libnds/lib\libnds9.a(fifosystem.o)
punixTime           0x4               c:/users/riedle/nds/devkitpro/devkitarm/bin/../lib/gcc/arm-none-eabi/4.7.1/../../../../arm-none-eabi/lib/thumb\libsysbase.a(times.o)
fifo_address_data   0x40              c:/Users/riedle/NDS/DEVKITPRO/libnds/lib\libnds9.a(fifosystem.o)
fifo_datamsg_func   0x40              c:/Users/riedle/NDS/DEVKITPRO/libnds/lib\libnds9.a(fifosystem.o)
fifo_address_queue  0x40              c:/Users/riedle/NDS/DEVKITPRO/libnds/lib\libnds9.a(fifosystem.o)

Discarded input sections

 .group         0x00000000        0x8 main.o
 .group         0x00000000        0x8 main.o
 .group         0x00000000        0x8 main.o
 .group         0x00000000        0x8 main.o
 .group         0x00000000        0x8 main.o
 .group         0x00000000        0x8 main.o
 .group         0x00000000        0x8 main.o
 .group         0x00000000        0x8 main.o

Memory Configuration

Name             Origin             Length             Attributes
rom              0x08000000         0x02000000
ewram            0x02000000         0x003ff000
dtcm             0x0b000000         0x00004000
vectors          0x01000000         0x00000100
itcm             0x01000100         0x00007f00
*default*        0x00000000         0xffffffff

Linker script and memory map

                0x01000000                __vectors_start = ORIGIN (vectors)
                0x01000100                __itcm_start = ORIGIN (itcm)
                0x023ff000                __ewram_end = (ORIGIN (ewram) + 0x3ff000)
                0x023ff000                __eheap_end = (ORIGIN (ewram) + 0x3ff000)
                0x0b000000                __dtcm_start = ORIGIN (dtcm)
                0x0b004000                __dtcm_top = (ORIGIN (dtcm) + 0x4000)
                0x0b003ff8                __irq_flags = (__dtcm_top - 0x8)
                0x0b003ffc                __irq_vector = (__dtcm_top - 0x4)
                0x0b003f00                __sp_svc = (__dtcm_top - 0x100)
                0x0b003e00                __sp_irq = (__sp_svc - 0x100)
                0x0b003d00                __sp_usr = (__sp_irq - 0x100)

.init           0x02000000      0x23c
                0x02000000                __text_start = .
 *(.init)
 .init          0x02000000      0x230 c:/users/riedle/nds/devkitpro/devkitarm/bin/../lib/gcc/arm-none-eabi/4.7.1/../../../../arm-none-eabi/lib/thumb/ds_arm9_crt0.o
                0x02000000                _start
 .init          0x02000230        0x4 c:/users/riedle/nds/devkitpro/devkitarm/bin/../lib/gcc/arm-none-eabi/4.7.1/thumb/crti.o
                0x02000230                _init
 .init          0x02000234        0x8 c:/users/riedle/nds/devkitpro/devkitarm/bin/../lib/gcc/arm-none-eabi/4.7.1/thumb/crtn.o
                0x0200023c                . = ALIGN (0x4)

.plt
 *(.plt)

.text           0x02000240    0x34078
 *(EXCLUDE_FILE(*.itcm*) .text)
 .text          0x02000240        0x0 c:/users/riedle/nds/devkitpro/devkitarm/bin/../lib/gcc/arm-none-eabi/4.7.1/../../../../arm-none-eabi/lib/thumb/ds_arm9_crt0.o
 .text          0x02000240        0x0 c:/users/riedle/nds/devkitpro/devkitarm/bin/../lib/gcc/arm-none-eabi/4.7.1/thumb/crti.o
 .text          0x02000240       0xd0 c:/users/riedle/nds/devkitpro/devkitarm/bin/../lib/gcc/arm-none-eabi/4.7.1/thumb/crtbegin.o
 .text          0x02000310       0x20 main.o
                0x02000310                lua_gettablevalue(lua_State*, int, int)
 .text          0x02000330     0x1128 lapi.o
                0x02000458                lua_checkstack
                0x020004b0                lua_xmove
                0x020004f0                lua_atpanic
                0x020004fc                lua_version
                0x02000514                lua_absindex
                0x02000534                lua_gettop
                0x02000544                lua_settop
                0x02000574                lua_remove
                0x020005bc                lua_insert
                0x02000600                lua_replace
                0x02000618                lua_copy
                0x02000630                lua_pushvalue
                0x0200064c                lua_type
                0x0200066c                lua_typename
                0x0200067c                lua_iscfunction
                0x02000698                lua_isnumber
                0x020006bc                lua_isstring
                0x020006d0                lua_isuserdata
                0x020006e8                lua_rawequal
                0x02000724                lua_arith
                0x02000794                lua_compare
                0x020007f8                lua_tonumberx
                0x02000840                lua_tointegerx
                0x0200087c                lua_tounsignedx
                0x020008e4                lua_toboolean
                0x02000904                lua_tolstring
                0x0200095c                lua_rawlen
                0x0200098c                lua_tocfunction
                0x020009ac                lua_touserdata
                0x020009d0                lua_tothread
                0x020009e4                lua_topointer
                0x02000a18                lua_pushnil
                0x02000a24                lua_pushnumber
                0x02000a38                lua_pushinteger
                0x02000a54                lua_pushunsigned
                0x02000a80                lua_pushlstring
                0x02000ab4                lua_pushstring
                0x02000af4                lua_pushvfstring
                0x02000b14                lua_pushfstring
                0x02000b40                lua_pushcclosure
                0x02000ba0                lua_pushboolean
                0x02000bb4                lua_pushlightuserdata
                0x02000bc4                lua_pushthread
                0x02000be0                lua_getglobal
                0x02000c1c                lua_gettable
                0x02000c34                lua_getfield
                0x02000c68                lua_rawget
                0x02000c8c                lua_rawgeti
                0x02000cb4                lua_rawgetp
                0x02000ce4                lua_createtable
                0x02000d24                lua_getmetatable
                0x02000d68                lua_getuservalue
                0x02000d8c                lua_setglobal
                0x02000dd0                lua_settable
                0x02000df0                lua_setfield
                0x02000e30                lua_rawset
                0x02000e88                lua_rawseti
                0x02000ecc                lua_rawsetp
                0x02000f2c                lua_setmetatable
                0x02000fb0                lua_setuservalue
                0x02000ff8                lua_getctx
                0x02001014                lua_callk
                0x02001064                lua_pcallk
                0x02001104                lua_load
                0x02001180                lua_dump
                0x020011ac                lua_status
                0x020011b0                lua_gc
                0x02001280                lua_error
                0x02001288                lua_next
                0x020012b0                lua_concat
                0x020012f4                lua_len
                0x02001310                lua_getallocf
                0x02001324                lua_setallocf
                0x0200132c                lua_newuserdata
                0x0200135c                lua_getupvalue
                0x02001394                lua_setupvalue
                0x020013ec                lua_upvalueid
                0x02001418                lua_upvaluejoin
 .text          0x02001458     0x1100 lauxlib.o
                0x020016f8                luaL_traceback
                0x020018b8                luaL_where
                0x02001900                luaL_error
                0x02001938                luaL_argerror
                0x02001a20                luaL_fileresult
                0x02001a7c                luaL_execresult
                0x02001ab8                luaL_newmetatable
                0x02001b08                luaL_setmetatable
                0x02001b24                luaL_testudata
                0x02001b78                luaL_checkudata
                0x02001b98                luaL_checkstack
                0x02001bc8                luaL_checktype
                0x02001be4                luaL_checkany
                0x02001c04                luaL_checklstring
                0x02001c24                luaL_optlstring
                0x02001c60                luaL_checkoption
                0x02001cc4                luaL_checknumber
                0x02001cf0                luaL_optnumber
                0x02001d14                luaL_checkinteger
                0x02001d3c                luaL_checkunsigned
                0x02001d64                luaL_optinteger
                0x02001d84                luaL_optunsigned
                0x02001da4                luaL_prepbuffsize
                0x02001e08                luaL_addlstring
                0x02001e28                luaL_addstring
                0x02001e40                luaL_pushresult
                0x02001e68                luaL_pushresultsize
                0x02001e78                luaL_addvalue
                0x02001ec0                luaL_buffinit
                0x02001ed4                luaL_buffinitsize
                0x02001ef4                luaL_ref
                0x02001f70                luaL_unref
                0x02001fa8                luaL_loadfilex
                0x02002100                luaL_loadbufferx
                0x0200211c                luaL_loadstring
                0x02002140                luaL_getmetafield
                0x02002190                luaL_callmeta
                0x020021cc                luaL_len
                0x02002208                luaL_tolstring
                0x020022ac                luaL_getsubtable
                0x02002300                luaL_requiref
                0x02002374                luaL_gsub
                0x020023f4                luaL_newstate
                0x02002418                luaL_checkversion_
                0x020024c8                luaL_setfuncs
 .text          0x02002558      0x9c8 lbaselib.o
                0x02002ebc                luaopen_base
 .text          0x02002f20      0x2e4 lbitlib.o
                0x020031e4                luaopen_bit32
 *fill*         0x02003204        0x4 ff
 .text          0x02003208     0x10d0 lcode.o
                0x020035e0                luaK_getlabel
                0x020035e8                luaK_patchclose
                0x02003640                luaK_concat
                0x02003688                luaK_patchtohere
                0x0200369c                luaK_patchlist
                0x020036b8                luaK_jump
                0x020036e4                luaK_codeABC
                0x020036fc                luaK_ret
                0x02003714                luaK_nil
                0x020037a4                luaK_codeABx
                0x020037b4                luaK_codek
                0x020037f0                luaK_checkstack
                0x02003818                luaK_reserveregs
                0x0200382c                luaK_stringK
                0x02003848                luaK_numberK
                0x020038d0                luaK_setreturns
                0x02003940                luaK_setoneret
                0x02003984                luaK_dischargevars
                0x02003c08                luaK_exp2nextreg
                0x02003c34                luaK_exp2anyreg
                0x02003c70                luaK_exp2anyregup
                0x02003c88                luaK_exp2val
                0x02003ca0                luaK_exp2RK
                0x02003ea0                luaK_storevar
                0x02003f14                luaK_self
                0x02003f64                luaK_goiftrue
                0x02003fbc                luaK_goiffalse
                0x02004004                luaK_indexed
                0x02004028                luaK_prefix
                0x0200413c                luaK_infix
                0x02004184                luaK_posfix
                0x02004268                luaK_fixline
                0x02004278                luaK_setlist
 .text          0x020042d8      0x294 lcorolib.o
                0x0200454c                luaopen_coroutine
 .text          0x0200456c        0x0 lctype.o
 .text          0x0200456c      0x984 ldblib.o
                0x02004ed0                luaopen_debug
 .text          0x02004ef0      0x914 ldebug.o
                0x020051dc                lua_sethook
                0x0200520c                lua_gethook
                0x02005210                lua_gethookmask
                0x02005218                lua_gethookcount
                0x0200521c                lua_getstack
                0x02005248                lua_getlocal
                0x02005294                lua_setlocal
                0x020052c8                lua_getinfo
                0x020055dc                luaG_errormsg
                0x02005648                luaG_runerror
                0x020056b8                luaG_ordererror
                0x020056f0                luaG_typeerror
                0x020057bc                luaG_aritherror
                0x020057e4                luaG_concaterror
 .text          0x02005804      0xa7c ldo.o
                0x02005854                luaD_throw
                0x0200599c                luaD_rawrunprotected
                0x020059e0                luaD_reallocstack
                0x02005aa4                luaD_growstack
                0x02005b00                luaD_shrinkstack
                0x02005b50                luaD_hook
                0x02005bd8                luaD_poscall
                0x02005cdc                luaD_precall
                0x02005fec                luaD_call
                0x02006064                lua_resume
                0x02006140                lua_yieldk
                0x02006198                luaD_pcall
                0x020061fc                luaD_protectedparser
 .text          0x02006280      0x290 ldump.o
                0x020064dc                luaU_dump
 .text          0x02006510      0x274 lfunc.o
                0x02006510                luaF_newCclosure
                0x0200652c                luaF_newLclosure
                0x02006560                luaF_newupval
                0x02006580                luaF_findupval
                0x020065f4                luaF_freeupval
                0x02006614                luaF_close
                0x02006690                luaF_newproto
                0x020066d4                luaF_freeproto
                0x02006740                luaF_getlocalname
 .text          0x02006784     0x1270 lgc.o
                0x020075ac                luaC_barrier_
                0x020075dc                luaC_barrierback_
                0x020075f0                luaC_barrierproto_
                0x0200761c                luaC_checkupvalcolor
                0x02007668                luaC_newobj
                0x020076a0                luaC_checkfinalizer
                0x0200773c                luaC_freeallobjects
                0x0200779c                luaC_runtilstate
                0x020077d4                luaC_changemode
                0x02007810                luaC_fullgc
                0x020078b8                luaC_forcestep
                0x020079d4                luaC_step
 .text          0x020079f4       0x4c linit.o
                0x020079f4                luaL_openlibs
 .text          0x02007a40      0xb78 liolib.o
                0x02008510                luaopen_io
 .text          0x020085b8      0xc68 llex.o
                0x020085b8                luaX_init
                0x020085e0                luaX_token2str
                0x020087b4                luaX_syntaxerror
                0x0200882c                luaX_newstring
                0x02009190                luaX_setinput
                0x020091e0                luaX_next
                0x02009210                luaX_lookahead
 .text          0x02009220      0x5e8 lmathlib.o
                0x020097a0                luaopen_math
 .text          0x02009808       0xf0 lmem.o
                0x02009808                luaM_toobig
                0x02009814                luaM_realloc_
                0x02009884                luaM_growaux_
 .text          0x020098f8      0x874 loadlib.o
                0x02009fe8                luaopen_package
 *fill*         0x0200a16c        0x4 ff
 .text          0x0200a170      0x6b0 lobject.o
                0x0200a19c                luaO_int2fb
                0x0200a1c0                luaO_fb2int
                0x0200a1d4                luaO_ceillog2
                0x0200a1f4                luaO_arith
                0x0200a29c                luaO_hexavalue
                0x0200a2b8                luaO_str2d
                0x0200a574                luaO_pushvfstring
                0x0200a724                luaO_pushfstring
                0x0200a740                luaO_chunkid
 .text          0x0200a820        0x0 lopcodes.o
 .text          0x0200a820      0x568 loslib.o
                0x0200ad68                luaopen_os
 .text          0x0200ad88     0x1f18 lparser.o
                0x0200cbd8                luaY_parser
 .text          0x0200cca0      0x3ac lstate.o
                0x0200cd78                luaE_setdebt
                0x0200cd88                luaE_extendCI
                0x0200cda4                luaE_freeCI
                0x0200ce3c                lua_newstate
                0x0200cfa4                lua_newthread
                0x0200d018                luaE_freethread
                0x0200d03c                lua_close
 .text          0x0200d04c      0x2d8 lstring.o
                0x0200d080                luaS_eqlngstr
                0x0200d0a4                luaS_eqstr
                0x0200d0cc                luaS_hash
                0x0200d0f8                luaS_resize
                0x0200d1c4                luaS_newlstr
                0x0200d2e0                luaS_new
                0x0200d2f8                luaS_newudata
 *fill*         0x0200d324        0x4 ff
 .text          0x0200d328     0x1438 lstrlib.o
                0x0200e6f0                luaopen_string
 .text          0x0200e760      0x9a0 ltable.o
                0x0200e8e8                luaH_next
                0x0200ea80                luaH_new
                0x0200eab0                luaH_free
                0x0200eaec                luaH_getint
                0x0200eb40                luaH_getstr
                0x0200eb74                luaH_get
                0x0200ec30                luaH_setint
                0x0200ec80                luaH_resize
                0x0200ee24                luaH_newkey
                0x0200f008                luaH_set
                0x0200f030                luaH_resizearray
                0x0200f054                luaH_getn
 .text          0x0200f100      0x5d0 ltablib.o
                0x0200f6b0                luaopen_table
 .text          0x0200f6d0       0xa4 ltm.o
                0x0200f6d0                luaT_init
                0x0200f710                luaT_gettm
                0x0200f734                luaT_gettmbyobj
 .text          0x0200f774      0x4dc lundump.o
                0x0200fb08                luaU_header
                0x0200fb44                luaU_undump
 .text          0x0200fc50     0x1840 lvm.o
                0x0200fdcc                luaV_tonumber
                0x0200fe08                luaV_tostring
                0x0200fe44                luaV_gettable
                0x0200ff14                luaV_settable
                0x02010028                luaV_lessthan
                0x0201008c                luaV_lessequal
                0x0201010c                luaV_equalobj_
                0x0201021c                luaV_concat
                0x020103f0                luaV_objlen
                0x02010480                luaV_arith
                0x020104f4                luaV_finishOp
                0x020105e0                luaV_execute
 .text          0x02011490       0xc8 lzio.o
                0x02011490                luaZ_fill
                0x020114c4                luaZ_init
                0x020114d4                luaZ_read
                0x02011528                luaZ_openspace
 .text          0x02011558      0xa4c c:/Users/riedle/NDS/DEVKITPRO/libnds/lib\libnds9.a(console.o)
                0x020115f8                nocash_write
                0x02011608                consoleGetDefault
                0x02011614                consoleSelect
                0x02011624                consoleDebugInit
                0x02011674                consolePrintChar
                0x02011840                consoleLoadFont
                0x02011ac8                consoleSetFont
                0x02011ae8                consoleInit
                0x02011c50                consoleDemoInit
                0x02011c94                con_write
                0x02011f70                consoleClear
                0x02011f80                consoleSetWindow
 .text          0x02011fa4      0x140 c:/Users/riedle/NDS/DEVKITPRO/libnds/lib\libnds9.a(initSystem.o)
                0x02011fa4                initSystem
 .text          0x020120e4      0xc58 c:/Users/riedle/NDS/DEVKITPRO/libnds/lib\libnds9.a(fifosystem.o)
                0x02012338                fifoSendAddress
                0x02012364                fifoSendValue32
                0x020123a4                fifoSendDatamsg
                0x02012414                fifoGetAddress
                0x0201248c                fifoSetAddressHandler
                0x02012500                fifoGetValue32
                0x02012574                fifoSetValue32Handler
                0x020125e8                fifoGetDatamsg
                0x02012a6c                fifoSetDatamsgHandler
                0x02012b04                fifoCheckAddress
                0x02012b28                fifoCheckDatamsg
                0x02012b4c                fifoCheckValue32
                0x02012b70                fifoInit
 .text          0x02012d3c      0x1ec c:/Users/riedle/NDS/DEVKITPRO/libnds/lib\libnds9.a(interrupts.o)
                0x02012d3c                irqDummy
                0x02012d40                irqSet
                0x02012dac                irqInit
                0x02012df8                irqInitHandler
                0x02012e28                irqEnable
                0x02012e8c                irqDisable
                0x02012ef0                irqClear
 .text          0x02012f28       0x58 c:/Users/riedle/NDS/DEVKITPRO/libnds/lib\libnds9.a(libnds_exit.arm.o)
                0x02012f28                systemErrorExit
                0x02012f2c                __libnds_exit
 .text          0x02012f80      0x1b4 c:/Users/riedle/NDS/DEVKITPRO/libnds/lib\libnds9.a(mpu_setup.o)
                0x02012f80                __libnds_mpu_setup
                0x020130c0                memCached
                0x020130d8                memUncached
 *fill*         0x02013134        0xc ff
 .text          0x02013140       0x70 c:/Users/riedle/NDS/DEVKITPRO/libnds/lib\libnds9.a(biosCalls.o)
                0x02013140                swiDelay
                0x02013144                swiIntrWait
                0x02013148                swiWaitForVBlank
                0x0201314c                swiSleep
                0x02013150                swiChangeSoundBias
                0x02013154                swiDivide
                0x02013158                swiRemainder
                0x0201315e                swiDivMod
                0x0201316a                swiCopy
                0x0201316e                swiFastCopy
                0x02013172                swiSqrt
                0x02013176                swiCRC16
                0x0201317a                swiIsDebugger
                0x0201317e                swiUnpackBits
                0x02013182                swiDecompressLZSSWram
                0x02013186                swiDecompressLZSSVramNTR
                0x0201318a                swiDecompressLZSSVramTWL
                0x0201318e                swiDecompressHuffman
                0x02013192                swiDecompressRLEWram
                0x02013196                swiDecompressRLEVram
                0x0201319a                swiWaitForIRQ
                0x0201319e                swiDecodeDelta8
                0x020131a2                swiDecodeDelta16
                0x020131a6                swiSetHaltCR
 .text          0x020131b0       0xa4 c:/Users/riedle/NDS/DEVKITPRO/libnds/lib\libnds9.a(debugprint.o)
                0x020131b0                nocashWrite
                0x020131b2                nocashMessage
 .text          0x02013254        0x0 c:/Users/riedle/NDS/DEVKITPRO/libnds/lib\libnds9.a(interruptDispatcher.o)
 *fill*         0x02013254        0xc ff
 .text          0x02013260       0x30 c:/Users/riedle/NDS/DEVKITPRO/libnds/lib\libnds9.a(swiSoftReset.o)
                0x02013260                swiSoftReset
 .text          0x02013290        0x0 c:/Users/riedle/NDS/DEVKITPRO/libnds/lib\libnds9.a(default_font.bin.o)
 .text          0x02013290      0x2e8 c:/Users/riedle/NDS/DEVKITPRO/libnds/lib\libnds9.a(background.o)
                0x02013290                bgIsText
                0x0201329c                checkIfText
                0x020132f4                bgUpdate
                0x020133e8                bgInit_call
                0x020134ac                bgInitSub_call
 .text          0x02013578      0x128 c:/Users/riedle/NDS/DEVKITPRO/libnds/lib\libnds9.a(system.o)
                0x02013578                setSDcallback
                0x02013584                systemMsgHandler
                0x020135c8                systemSleep
                0x020135e0                systemValueHandler
                0x0201361c                powerOn
                0x02013648                powerOff
                0x02013670                ledBlink
                0x02013680                getBatteryLevel
 .text          0x020136a0      0x244 c:/Users/riedle/NDS/DEVKITPRO/libnds/lib\libnds9.a(trig.o)
                0x020136a0                asinComp
                0x020136c8                sinLutLookup
                0x02013704                sinLerp
                0x0201373c                cosLerp
                0x02013750                tanLutLookup
                0x02013788                tanLerp
                0x0201382c                asinLerp
                0x020138a8                acosLerp
                0x020138bc                atanComp
 .text          0x020138e4      0x1f8 c:/Users/riedle/NDS/DEVKITPRO/libnds/lib\libnds9.a(video.o)
                0x020138e4                vramSetPrimaryBanks
                0x02013928                vramSetMainBanks
                0x0201396c                vramSetBanks_EFG
                0x020139a4                vramRestorePrimaryBanks
                0x020139b0                vramRestoreMainBanks
                0x020139bc                vramRestoreBanks_EFG
                0x020139c8                setBrightness
                0x02013a08                vramDefault
 .text          0x02013adc        0x0 c:/users/riedle/nds/devkitpro/devkitarm/bin/../lib/gcc/arm-none-eabi/4.7.1/../../../../arm-none-eabi/lib/thumb\libstdc++.a(new_op.o)
 .text          0x02013adc        0x0 c:/users/riedle/nds/devkitpro/devkitarm/bin/../lib/gcc/arm-none-eabi/4.7.1/../../../../arm-none-eabi/lib/thumb\libstdc++.a(eh_call.o)
 .text          0x02013adc        0x0 c:/users/riedle/nds/devkitpro/devkitarm/bin/../lib/gcc/arm-none-eabi/4.7.1/../../../../arm-none-eabi/lib/thumb\libstdc++.a(eh_personality.o)
 .text          0x02013adc        0x0 c:/users/riedle/nds/devkitpro/devkitarm/bin/../lib/gcc/arm-none-eabi/4.7.1/../../../../arm-none-eabi/lib/thumb\libstdc++.a(del_op.o)
 .text          0x02013adc        0x0 c:/users/riedle/nds/devkitpro/devkitarm/bin/../lib/gcc/arm-none-eabi/4.7.1/../../../../arm-none-eabi/lib/thumb\libstdc++.a(eh_terminate.o)
 .text          0x02013adc        0x0 c:/users/riedle/nds/devkitpro/devkitarm/bin/../lib/gcc/arm-none-eabi/4.7.1/../../../../arm-none-eabi/lib/thumb\libstdc++.a(eh_exception.o)
 .text          0x02013adc        0x0 c:/users/riedle/nds/devkitpro/devkitarm/bin/../lib/gcc/arm-none-eabi/4.7.1/../../../../arm-none-eabi/lib/thumb\libstdc++.a(eh_alloc.o)
 .text          0x02013adc        0x0 c:/users/riedle/nds/devkitpro/devkitarm/bin/../lib/gcc/arm-none-eabi/4.7.1/../../../../arm-none-eabi/lib/thumb\libstdc++.a(bad_alloc.o)
 .text          0x02013adc        0x0 c:/users/riedle/nds/devkitpro/devkitarm/bin/../lib/gcc/arm-none-eabi/4.7.1/../../../../arm-none-eabi/lib/thumb\libstdc++.a(class_type_info.o)
 .text          0x02013adc        0x0 c:/users/riedle/nds/devkitpro/devkitarm/bin/../lib/gcc/arm-none-eabi/4.7.1/../../../../arm-none-eabi/lib/thumb\libstdc++.a(new_handler.o)
 .text          0x02013adc        0x0 c:/users/riedle/nds/devkitpro/devkitarm/bin/../lib/gcc/arm-none-eabi/4.7.1/../../../../arm-none-eabi/lib/thumb\libstdc++.a(eh_arm.o)
 .text          0x02013adc        0x0 c:/users/riedle/nds/devkitpro/devkitarm/bin/../lib/gcc/arm-none-eabi/4.7.1/../../../../arm-none-eabi/lib/thumb\libstdc++.a(eh_throw.o)
 .text          0x02013adc        0x0 c:/users/riedle/nds/devkitpro/devkitarm/bin/../lib/gcc/arm-none-eabi/4.7.1/../../../../arm-none-eabi/lib/thumb\libstdc++.a(pure.o)
 .text          0x02013adc        0x0 c:/users/riedle/nds/devkitpro/devkitarm/bin/../lib/gcc/arm-none-eabi/4.7.1/../../../../arm-none-eabi/lib/thumb\libstdc++.a(eh_globals.o)
 .text          0x02013adc        0x0 c:/users/riedle/nds/devkitpro/devkitarm/bin/../lib/gcc/arm-none-eabi/4.7.1/../../../../arm-none-eabi/lib/thumb\libstdc++.a(eh_catch.o)
 .text          0x02013adc        0x0 c:/users/riedle/nds/devkitpro/devkitarm/bin/../lib/gcc/arm-none-eabi/4.7.1/../../../../arm-none-eabi/lib/thumb\libstdc++.a(si_class_type_info.o)
 .text          0x02013adc        0x0 c:/users/riedle/nds/devkitpro/devkitarm/bin/../lib/gcc/arm-none-eabi/4.7.1/../../../../arm-none-eabi/lib/thumb\libstdc++.a(eh_unex_handler.o)
 .text          0x02013adc        0x0 c:/users/riedle/nds/devkitpro/devkitarm/bin/../lib/gcc/arm-none-eabi/4.7.1/../../../../arm-none-eabi/lib/thumb\libstdc++.a(tinfo.o)
 .text          0x02013adc        0x0 c:/users/riedle/nds/devkitpro/devkitarm/bin/../lib/gcc/arm-none-eabi/4.7.1/../../../../arm-none-eabi/lib/thumb\libstdc++.a(eh_term_handler.o)
 .text          0x02013adc        0x0 c:/users/riedle/nds/devkitpro/devkitarm/bin/../lib/gcc/arm-none-eabi/4.7.1/../../../../arm-none-eabi/lib/thumb\libstdc++.a(vterminate.o)
 .text          0x02013adc        0x0 c:/users/riedle/nds/devkitpro/devkitarm/bin/../lib/gcc/arm-none-eabi/4.7.1/../../../../arm-none-eabi/lib/thumb\libstdc++.a(eh_type.o)
 .text          0x02013adc     0x5984 c:/users/riedle/nds/devkitpro/devkitarm/bin/../lib/gcc/arm-none-eabi/4.7.1/../../../../arm-none-eabi/lib/thumb\libstdc++.a(cp-demangle.o)
                0x0201936c                __cxa_demangle
                0x02019434                __gcclibcxx_demangle_callback
 .text          0x02019460      0x358 c:/users/riedle/nds/devkitpro/devkitarm/bin/../lib/gcc/arm-none-eabi/4.7.1/../../../../arm-none-eabi/lib/thumb\libm.a(lib_a-s_atan.o)
                0x02019460                atan
 .text          0x020197b8      0x150 c:/users/riedle/nds/devkitpro/devkitarm/bin/../lib/gcc/arm-none-eabi/4.7.1/../../../../arm-none-eabi/lib/thumb\libm.a(lib_a-s_ceil.o)
                0x020197b8                ceil
 .text          0x02019908       0xb0 c:/users/riedle/nds/devkitpro/devkitarm/bin/../lib/gcc/arm-none-eabi/4.7.1/../../../../arm-none-eabi/lib/thumb\libm.a(lib_a-s_cos.o)
                0x02019908                cos
 .text          0x020199b8        0x8 c:/users/riedle/nds/devkitpro/devkitarm/bin/../lib/gcc/arm-none-eabi/4.7.1/../../../../arm-none-eabi/lib/thumb\libm.a(lib_a-s_fabs.o)
                0x020199b8                fabs
 .text          0x020199c0      0x148 c:/users/riedle/nds/devkitpro/devkitarm/bin/../lib/gcc/arm-none-eabi/4.7.1/../../../../arm-none-eabi/lib/thumb\libm.a(lib_a-s_floor.o)
                0x020199c0                floor
 .text          0x02019b08       0x70 c:/users/riedle/nds/devkitpro/devkitarm/bin/../lib/gcc/arm-none-eabi/4.7.1/../../../../arm-none-eabi/lib/thumb\libm.a(lib_a-s_frexp.o)
                0x02019b08                frexp
 .text          0x02019b78       0x68 c:/users/riedle/nds/devkitpro/devkitarm/bin/../lib/gcc/arm-none-eabi/4.7.1/../../../../arm-none-eabi/lib/thumb\libm.a(lib_a-s_ldexp.o)
                0x02019b78                ldexp
 .text          0x02019be0       0x90 c:/users/riedle/nds/devkitpro/devkitarm/bin/../lib/gcc/arm-none-eabi/4.7.1/../../../../arm-none-eabi/lib/thumb\libm.a(lib_a-s_modf.o)
                0x02019be0                modf
 .text          0x02019c70      0x118 c:/users/riedle/nds/devkitpro/devkitarm/bin/../lib/gcc/arm-none-eabi/4.7.1/../../../../arm-none-eabi/lib/thumb\libm.a(lib_a-s_scalbn.o)
                0x02019c70                scalbn
 .text          0x02019d88       0xb0 c:/users/riedle/nds/devkitpro/devkitarm/bin/../lib/gcc/arm-none-eabi/4.7.1/../../../../arm-none-eabi/lib/thumb\libm.a(lib_a-s_sin.o)
                0x02019d88                sin
 .text          0x02019e38      0x128 c:/users/riedle/nds/devkitpro/devkitarm/bin/../lib/gcc/arm-none-eabi/4.7.1/../../../../arm-none-eabi/lib/thumb\libm.a(lib_a-s_tanh.o)
                0x02019e38                tanh
 .text          0x02019f60       0x70 c:/users/riedle/nds/devkitpro/devkitarm/bin/../lib/gcc/arm-none-eabi/4.7.1/../../../../arm-none-eabi/lib/thumb\libm.a(lib_a-s_tan.o)
                0x02019f60                tan
 .text          0x02019fd0       0xc0 c:/users/riedle/nds/devkitpro/devkitarm/bin/../lib/gcc/arm-none-eabi/4.7.1/../../../../arm-none-eabi/lib/thumb\libm.a(lib_a-w_acos.o)
                0x02019fd0                acos
 .text          0x0201a090       0xc0 c:/users/riedle/nds/devkitpro/devkitarm/bin/../lib/gcc/arm-none-eabi/4.7.1/../../../../arm-none-eabi/lib/thumb\libm.a(lib_a-w_asin.o)
                0x0201a090                asin
 .text          0x0201a150        0xc c:/users/riedle/nds/devkitpro/devkitarm/bin/../lib/gcc/arm-none-eabi/4.7.1/../../../../arm-none-eabi/lib/thumb\libm.a(lib_a-w_atan2.o)
                0x0201a150                atan2
 *fill*         0x0201a15c        0x4 ff
 .text          0x0201a160       0xd0 c:/users/riedle/nds/devkitpro/devkitarm/bin/../lib/gcc/arm-none-eabi/4.7.1/../../../../arm-none-eabi/lib/thumb\libm.a(lib_a-w_cosh.o)
                0x0201a160                cosh
 .text          0x0201a230      0x138 c:/users/riedle/nds/devkitpro/devkitarm/bin/../lib/gcc/arm-none-eabi/4.7.1/../../../../arm-none-eabi/lib/thumb\libm.a(lib_a-w_exp.o)
                0x0201a230                exp
 .text          0x0201a368       0xd0 c:/users/riedle/nds/devkitpro/devkitarm/bin/../lib/gcc/arm-none-eabi/4.7.1/../../../../arm-none-eabi/lib/thumb\libm.a(lib_a-w_fmod.o)
                0x0201a368                fmod
 .text          0x0201a438      0x108 c:/users/riedle/nds/devkitpro/devkitarm/bin/../lib/gcc/arm-none-eabi/4.7.1/../../../../arm-none-eabi/lib/thumb\libm.a(lib_a-w_log10.o)
                0x0201a438                log10
 .text          0x0201a540      0x108 c:/users/riedle/nds/devkitpro/devkitarm/bin/../lib/gcc/arm-none-eabi/4.7.1/../../../../arm-none-eabi/lib/thumb\libm.a(lib_a-w_log.o)
                0x0201a540                log
 .text          0x0201a648      0x408 c:/users/riedle/nds/devkitpro/devkitarm/bin/../lib/gcc/arm-none-eabi/4.7.1/../../../../arm-none-eabi/lib/thumb\libm.a(lib_a-w_pow.o)
                0x0201a648                pow
 .text          0x0201aa50       0xf8 c:/users/riedle/nds/devkitpro/devkitarm/bin/../lib/gcc/arm-none-eabi/4.7.1/../../../../arm-none-eabi/lib/thumb\libm.a(lib_a-w_sinh.o)
                0x0201aa50                sinh
 .text          0x0201ab48       0xc0 c:/users/riedle/nds/devkitpro/devkitarm/bin/../lib/gcc/arm-none-eabi/4.7.1/../../../../arm-none-eabi/lib/thumb\libm.a(lib_a-w_sqrt.o)
                0x0201ab48                sqrt
 .text          0x0201ac08      0x498 c:/users/riedle/nds/devkitpro/devkitarm/bin/../lib/gcc/arm-none-eabi/4.7.1/../../../../arm-none-eabi/lib/thumb\libm.a(lib_a-e_acos.o)
                0x0201ac08                __ieee754_acos
 .text          0x0201b0a0      0x448 c:/users/riedle/nds/devkitpro/devkitarm/bin/../lib/gcc/arm-none-eabi/4.7.1/../../../../arm-none-eabi/lib/thumb\libm.a(lib_a-e_asin.o)
                0x0201b0a0                __ieee754_asin
 .text          0x0201b4e8      0x1e8 c:/users/riedle/nds/devkitpro/devkitarm/bin/../lib/gcc/arm-none-eabi/4.7.1/../../../../arm-none-eabi/lib/thumb\libm.a(lib_a-e_atan2.o)
                0x0201b4e8                __ieee754_atan2
 .text          0x0201b6d0      0x170 c:/users/riedle/nds/devkitpro/devkitarm/bin/../lib/gcc/arm-none-eabi/4.7.1/../../../../arm-none-eabi/lib/thumb\libm.a(lib_a-e_cosh.o)
                0x0201b6d0                __ieee754_cosh
 .text          0x0201b840      0x318 c:/users/riedle/nds/devkitpro/devkitarm/bin/../lib/gcc/arm-none-eabi/4.7.1/../../../../arm-none-eabi/lib/thumb\libm.a(lib_a-e_exp.o)
                0x0201b840                __ieee754_exp
 .text          0x0201bb58      0x268 c:/users/riedle/nds/devkitpro/devkitarm/bin/../lib/gcc/arm-none-eabi/4.7.1/../../../../arm-none-eabi/lib/thumb\libm.a(lib_a-e_fmod.o)
                0x0201bb58                __ieee754_fmod
 .text          0x0201bdc0      0x140 c:/users/riedle/nds/devkitpro/devkitarm/bin/../lib/gcc/arm-none-eabi/4.7.1/../../../../arm-none-eabi/lib/thumb\libm.a(lib_a-e_log10.o)
                0x0201bdc0                __ieee754_log10
 .text          0x0201bf00      0x448 c:/users/riedle/nds/devkitpro/devkitarm/bin/../lib/gcc/arm-none-eabi/4.7.1/../../../../arm-none-eabi/lib/thumb\libm.a(lib_a-e_log.o)
                0x0201bf00                __ieee754_log
 .text          0x0201c348      0xb48 c:/users/riedle/nds/devkitpro/devkitarm/bin/../lib/gcc/arm-none-eabi/4.7.1/../../../../arm-none-eabi/lib/thumb\libm.a(lib_a-e_pow.o)
                0x0201c348                __ieee754_pow
 .text          0x0201ce90      0x480 c:/users/riedle/nds/devkitpro/devkitarm/bin/../lib/gcc/arm-none-eabi/4.7.1/../../../../arm-none-eabi/lib/thumb\libm.a(lib_a-e_rem_pio2.o)
                0x0201ce90                __ieee754_rem_pio2
 .text          0x0201d310      0x1b0 c:/users/riedle/nds/devkitpro/devkitarm/bin/../lib/gcc/arm-none-eabi/4.7.1/../../../../arm-none-eabi/lib/thumb\libm.a(lib_a-e_sinh.o)
                0x0201d310                __ieee754_sinh
 .text          0x0201d4c0      0x1c4 c:/users/riedle/nds/devkitpro/devkitarm/bin/../lib/gcc/arm-none-eabi/4.7.1/../../../../arm-none-eabi/lib/thumb\libm.a(lib_a-e_sqrt.o)
                0x0201d4c0                __ieee754_sqrt
 *fill*         0x0201d684        0x4 ff
 .text          0x0201d688      0x250 c:/users/riedle/nds/devkitpro/devkitarm/bin/../lib/gcc/arm-none-eabi/4.7.1/../../../../arm-none-eabi/lib/thumb\libm.a(lib_a-k_cos.o)
                0x0201d688                __kernel_cos
 .text          0x0201d8d8      0x870 c:/users/riedle/nds/devkitpro/devkitarm/bin/../lib/gcc/arm-none-eabi/4.7.1/../../../../arm-none-eabi/lib/thumb\libm.a(lib_a-k_rem_pio2.o)
                0x0201d8d8                __kernel_rem_pio2
 .text          0x0201e148      0x168 c:/users/riedle/nds/devkitpro/devkitarm/bin/../lib/gcc/arm-none-eabi/4.7.1/../../../../arm-none-eabi/lib/thumb\libm.a(lib_a-k_sin.o)
                0x0201e148                __kernel_sin
 .text          0x0201e2b0      0x3a8 c:/users/riedle/nds/devkitpro/devkitarm/bin/../lib/gcc/arm-none-eabi/4.7.1/../../../../arm-none-eabi/lib/thumb\libm.a(lib_a-k_tan.o)
                0x0201e2b0                __kernel_tan
 .text          0x0201e658       0x14 c:/users/riedle/nds/devkitpro/devkitarm/bin/../lib/gcc/arm-none-eabi/4.7.1/../../../../arm-none-eabi/lib/thumb\libm.a(lib_a-s_copysign.o)
                0x0201e658                copysign
 *fill*         0x0201e66c        0x4 ff
 .text          0x0201e670      0x4d0 c:/users/riedle/nds/devkitpro/devkitarm/bin/../lib/gcc/arm-none-eabi/4.7.1/../../../../arm-none-eabi/lib/thumb\libm.a(lib_a-s_expm1.o)
                0x0201e670                expm1
 .text          0x0201eb40       0x10 c:/users/riedle/nds/devkitpro/devkitarm/bin/../lib/gcc/arm-none-eabi/4.7.1/../../../../arm-none-eabi/lib/thumb\libm.a(lib_a-s_finite.o)
                0x0201eb40                finite
 .text          0x0201eb50       0x5c c:/users/riedle/nds/devkitpro/devkitarm/bin/../lib/gcc/arm-none-eabi/4.7.1/../../../../arm-none-eabi/lib/thumb\libm.a(lib_a-s_fpclassify.o)
                0x0201eb50                __fpclassifyd
 .text          0x0201ebac        0x0 c:/users/riedle/nds/devkitpro/devkitarm/bin/../lib/gcc/arm-none-eabi/4.7.1/../../../../arm-none-eabi/lib/thumb\libm.a(lib_a-s_lib_ver.o)
 .text          0x0201ebac        0x4 c:/users/riedle/nds/devkitpro/devkitarm/bin/../lib/gcc/arm-none-eabi/4.7.1/../../../../arm-none-eabi/lib/thumb\libm.a(lib_a-s_matherr.o)
                0x0201ebac                matherr
 .text          0x0201ebb0       0x10 c:/users/riedle/nds/devkitpro/devkitarm/bin/../lib/gcc/arm-none-eabi/4.7.1/../../../../arm-none-eabi/lib/thumb\libm.a(lib_a-s_nan.o)
                0x0201ebb0                nan
 .text          0x0201ebc0      0x128 c:/users/riedle/nds/devkitpro/devkitarm/bin/../lib/gcc/arm-none-eabi/4.7.1/../../../../arm-none-eabi/lib/thumb\libm.a(lib_a-s_rint.o)
                0x0201ebc0                rint
 .text          0x0201ece8      0x11c c:/users/riedle/nds/devkitpro/devkitarm/bin/../lib/gcc/arm-none-eabi/4.7.1/thumb\libgcc.a(_udivsi3.o)
                0x0201ece8                __aeabi_uidiv
                0x0201ece8                __udivsi3
                0x0201ede4                __aeabi_uidivmod
 .text          0x0201ee04      0x150 c:/users/riedle/nds/devkitpro/devkitarm/bin/../lib/gcc/arm-none-eabi/4.7.1/thumb\libgcc.a(_divsi3.o)
                0x0201ee04                __divsi3
                0x0201ee04                __aeabi_idiv
                0x0201ef34                __aeabi_idivmod
 .text          0x0201ef54        0x4 c:/users/riedle/nds/devkitpro/devkitarm/bin/../lib/gcc/arm-none-eabi/4.7.1/thumb\libgcc.a(_dvmd_tls.o)
                0x0201ef54                __aeabi_idiv0
                0x0201ef54                __aeabi_ldiv0
 .text          0x0201ef58      0x41c c:/users/riedle/nds/devkitpro/devkitarm/bin/../lib/gcc/arm-none-eabi/4.7.1/thumb\libgcc.a(_arm_addsubdf3.o)
                0x0201ef58                __aeabi_drsub
                0x0201ef60                __aeabi_dsub
                0x0201ef60                __subdf3
                0x0201ef64                __aeabi_dadd
                0x0201ef64                __adddf3
                0x0201f274                __floatunsidf
                0x0201f274                __aeabi_ui2d
                0x0201f298                __floatsidf
                0x0201f298                __aeabi_i2d
                0x0201f2c0                __aeabi_f2d
                0x0201f2c0                __extendsfdf2
                0x0201f300                __floatundidf
                0x0201f300                __aeabi_ul2d
                0x0201f314                __floatdidf
                0x0201f314                __aeabi_l2d
 .text          0x0201f374      0x49c c:/users/riedle/nds/devkitpro/devkitarm/bin/../lib/gcc/arm-none-eabi/4.7.1/thumb\libgcc.a(_arm_muldivdf3.o)
                0x0201f374                __aeabi_dmul
                0x0201f374                __muldf3
                0x0201f604                __divdf3
                0x0201f604                __aeabi_ddiv
 .text          0x0201f810      0x144 c:/users/riedle/nds/devkitpro/devkitarm/bin/../lib/gcc/arm-none-eabi/4.7.1/thumb\libgcc.a(_arm_cmpdf2.o)
                0x0201f810                __gtdf2
                0x0201f810                __gedf2
                0x0201f818                __ltdf2
                0x0201f818                __ledf2
                0x0201f820                __nedf2
                0x0201f820                __eqdf2
                0x0201f820                __cmpdf2
                0x0201f8a8                __aeabi_cdrcmple
                0x0201f8c4                __aeabi_cdcmpeq
                0x0201f8c4                __aeabi_cdcmple
                0x0201f8dc                __aeabi_dcmpeq
                0x0201f8f4                __aeabi_dcmplt
                0x0201f90c                __aeabi_dcmple
                0x0201f924                __aeabi_dcmpge
                0x0201f93c                __aeabi_dcmpgt
 .text          0x0201f954       0x5c c:/users/riedle/nds/devkitpro/devkitarm/bin/../lib/gcc/arm-none-eabi/4.7.1/thumb\libgcc.a(_arm_fixdfsi.o)
                0x0201f954                __aeabi_d2iz
                0x0201f954                __fixdfsi
 .text          0x0201f9b0       0x54 c:/users/riedle/nds/devkitpro/devkitarm/bin/../lib/gcc/arm-none-eabi/4.7.1/thumb\libgcc.a(_arm_fixunsdfsi.o)
                0x0201f9b0                __aeabi_d2uiz
                0x0201f9b0                __fixunsdfsi
 .text          0x0201fa04      0xab4 c:/users/riedle/nds/devkitpro/devkitarm/bin/../lib/gcc/arm-none-eabi/4.7.1/thumb\libgcc.a(unwind-arm.o)
                0x0201fd00                _Unwind_GetCFA
                0x0201fd04                __gnu_Unwind_RaiseException
                0x0201fd64                __gnu_Unwind_ForcedUnwind
                0x0201fd7c                __gnu_Unwind_Resume
                0x0201fdc4                __gnu_Unwind_Resume_or_Rethrow
                0x0201fde4                _Unwind_Complete
                0x0201fde8                _Unwind_DeleteException
                0x0201fe00                _Unwind_VRS_Get
                0x0201fe4c                _Unwind_VRS_Set
                0x020201a8                __aeabi_unwind_cpp_pr2
                0x020201b8                __aeabi_unwind_cpp_pr1
                0x020201c8                __aeabi_unwind_cpp_pr0
                0x020201d8                __gnu_Unwind_Backtrace
                0x0202024c                _Unwind_VRS_Pop
 .text          0x020204b8      0x1d8 c:/users/riedle/nds/devkitpro/devkitarm/bin/../lib/gcc/arm-none-eabi/4.7.1/thumb\libgcc.a(libunwind.o)
                0x020204b8                __restore_core_regs
                0x020204b8                restore_core_regs
                0x020204d4                __gnu_Unwind_Restore_VFP
                0x020204dc                __gnu_Unwind_Save_VFP
                0x020204e4                __gnu_Unwind_Restore_VFP_D
                0x020204ec                __gnu_Unwind_Save_VFP_D
                0x020204f4                __gnu_Unwind_Restore_VFP_D_16_to_31
                0x020204fc                __gnu_Unwind_Save_VFP_D_16_to_31
                0x02020504                __gnu_Unwind_Restore_WMMXD
                0x02020548                __gnu_Unwind_Save_WMMXD
                0x0202058c                __gnu_Unwind_Restore_WMMXC
                0x020205a0                __gnu_Unwind_Save_WMMXC
                0x020205b4                ___Unwind_RaiseException
                0x020205b4                _Unwind_RaiseException
                0x020205e0                _Unwind_Resume
                0x020205e0                ___Unwind_Resume
                0x0202060c                _Unwind_Resume_or_Rethrow
                0x0202060c                ___Unwind_Resume_or_Rethrow
                0x02020638                _Unwind_ForcedUnwind
                0x02020638                ___Unwind_ForcedUnwind
                0x02020664                ___Unwind_Backtrace
                0x02020664                _Unwind_Backtrace
 .text          0x02020690      0x3e0 c:/users/riedle/nds/devkitpro/devkitarm/bin/../lib/gcc/arm-none-eabi/4.7.1/thumb\libgcc.a(pr-support.o)
                0x020206ec                __gnu_unwind_execute
                0x02020a0c                __gnu_unwind_frame
                0x02020a38                _Unwind_GetRegionStart
                0x02020a48                _Unwind_GetLanguageSpecificData
                0x02020a60                _Unwind_GetDataRelBase
                0x02020a68                _Unwind_GetTextRelBase
 .text          0x02020a70       0x10 c:/users/riedle/nds/devkitpro/devkitarm/bin/../lib/gcc/arm-none-eabi/4.7.1/../../../../arm-none-eabi/lib/thumb\libg.a(lib_a-abort.o)
                0x02020a70                abort
 .text          0x02020a80       0x64 c:/users/riedle/nds/devkitpro/devkitarm/bin/../lib/gcc/arm-none-eabi/4.7.1/../../../../arm-none-eabi/lib/thumb\libg.a(lib_a-bsearch.o)
                0x02020a80                bsearch
 .text          0x02020ae4       0x2c c:/users/riedle/nds/devkitpro/devkitarm/bin/../lib/gcc/arm-none-eabi/4.7.1/../../../../arm-none-eabi/lib/thumb\libg.a(lib_a-clock.o)
                0x02020ae4                clock
 .text          0x02020b10       0x10 c:/users/riedle/nds/devkitpro/devkitarm/bin/../lib/gcc/arm-none-eabi/4.7.1/../../../../arm-none-eabi/lib/thumb\libg.a(lib_a-ctype_.o)
                0x02020b10                __set_ctype
 .text          0x02020b20       0x10 c:/users/riedle/nds/devkitpro/devkitarm/bin/../lib/gcc/arm-none-eabi/4.7.1/../../../../arm-none-eabi/lib/thumb\libg.a(lib_a-difftime.o)
                0x02020b20                difftime
 .text          0x02020b30        0xc c:/users/riedle/nds/devkitpro/devkitarm/bin/../lib/gcc/arm-none-eabi/4.7.1/../../../../arm-none-eabi/lib/thumb\libg.a(lib_a-errno.o)
                0x02020b30                __errno
 .text          0x02020b3c       0x28 c:/users/riedle/nds/devkitpro/devkitarm/bin/../lib/gcc/arm-none-eabi/4.7.1/../../../../arm-none-eabi/lib/thumb\libg.a(lib_a-exit.o)
                0x02020b3c                exit
 .text          0x02020b64       0xb0 c:/users/riedle/nds/devkitpro/devkitarm/bin/../lib/gcc/arm-none-eabi/4.7.1/../../../../arm-none-eabi/lib/thumb\libg.a(lib_a-fclose.o)
                0x02020b64                _fclose_r
                0x02020bf8                fclose
 .text          0x02020c14      0x1b8 c:/users/riedle/nds/devkitpro/devkitarm/bin/../lib/gcc/arm-none-eabi/4.7.1/../../../../arm-none-eabi/lib/thumb\libg.a(lib_a-fflush.o)
                0x02020c14                __sflush_r
                0x02020d6c                _fflush_r
                0x02020d9c                fflush
 .text          0x02020dcc       0xd0 c:/users/riedle/nds/devkitpro/devkitarm/bin/../lib/gcc/arm-none-eabi/4.7.1/../../../../arm-none-eabi/lib/thumb\libg.a(lib_a-fgets.o)
                0x02020dcc                _fgets_r
                0x02020e7c                fgets
 .text          0x02020e9c      0x1d8 c:/users/riedle/nds/devkitpro/devkitarm/bin/../lib/gcc/arm-none-eabi/4.7.1/../../../../arm-none-eabi/lib/thumb\libg.a(lib_a-findfp.o)
                0x02020ea4                _cleanup_r
                0x02020f04                __sfmoreglue
                0x02020f34                _cleanup
                0x02020f48                __sinit
                0x02020f9c                __sfp
                0x0202102c                __sfp_lock_acquire
                0x02021030                __sfp_lock_release
                0x02021034                __sinit_lock_acquire
                0x02021038                __sinit_lock_release
                0x0202103c                __fp_lock_all
                0x02021058                __fp_unlock_all
 .text          0x02021074       0xa8 c:/users/riedle/nds/devkitpro/devkitarm/bin/../lib/gcc/arm-none-eabi/4.7.1/../../../../arm-none-eabi/lib/thumb\libg.a(lib_a-fopen.o)
                0x02021074                _fopen_r
                0x02021100                fopen
 .text          0x0202111c       0x3c c:/users/riedle/nds/devkitpro/devkitarm/bin/../lib/gcc/arm-none-eabi/4.7.1/../../../../arm-none-eabi/lib/thumb\libg.a(lib_a-fprintf.o)
                0x0202111c                _fprintf_r
                0x02021134                fprintf
 .text          0x02021158       0x54 c:/users/riedle/nds/devkitpro/devkitarm/bin/../lib/gcc/arm-none-eabi/4.7.1/../../../../arm-none-eabi/lib/thumb\libg.a(lib_a-fputc.o)
                0x02021158                _fputc_r
                0x02021180                fputc
 .text          0x020211ac       0x78 c:/users/riedle/nds/devkitpro/devkitarm/bin/../lib/gcc/arm-none-eabi/4.7.1/../../../../arm-none-eabi/lib/thumb\libg.a(lib_a-fputs.o)
                0x020211ac                _fputs_r
                0x02021208                fputs
 .text          0x02021224      0x190 c:/users/riedle/nds/devkitpro/devkitarm/bin/../lib/gcc/arm-none-eabi/4.7.1/../../../../arm-none-eabi/lib/thumb\libg.a(lib_a-fread.o)
                0x02021224                _fread_r
                0x0202138c                fread
 .text          0x020213b4      0x238 c:/users/riedle/nds/devkitpro/devkitarm/bin/../lib/gcc/arm-none-eabi/4.7.1/../../../../arm-none-eabi/lib/thumb\libg.a(lib_a-freer.o)
                0x020213b4                _malloc_trim_r
                0x02021458                _free_r
 .text          0x020215ec      0x178 c:/users/riedle/nds/devkitpro/devkitarm/bin/../lib/gcc/arm-none-eabi/4.7.1/../../../../arm-none-eabi/lib/thumb\libg.a(lib_a-freopen.o)
                0x020215ec                _freopen_r
                0x02021740                freopen
 .text          0x02021764       0x3c c:/users/riedle/nds/devkitpro/devkitarm/bin/../lib/gcc/arm-none-eabi/4.7.1/../../../../arm-none-eabi/lib/thumb\libg.a(lib_a-fscanf.o)
                0x02021764                fscanf
                0x02021788                _fscanf_r
 .text          0x020217a0      0x328 c:/users/riedle/nds/devkitpro/devkitarm/bin/../lib/gcc/arm-none-eabi/4.7.1/../../../../arm-none-eabi/lib/thumb\libg.a(lib_a-fseek.o)
                0x020217a0                _fseek_r
                0x02021aa4                fseek
 .text          0x02021ac8       0x9c c:/users/riedle/nds/devkitpro/devkitarm/bin/../lib/gcc/arm-none-eabi/4.7.1/../../../../arm-none-eabi/lib/thumb\libg.a(lib_a-ftell.o)
                0x02021ac8                _ftell_r
                0x02021b48                ftell
 .text          0x02021b64      0x2fc c:/users/riedle/nds/devkitpro/devkitarm/bin/../lib/gcc/arm-none-eabi/4.7.1/../../../../arm-none-eabi/lib/thumb\libg.a(lib_a-fvwrite.o)
                0x02021b64                __sfvwrite_r
 .text          0x02021e60       0xb4 c:/users/riedle/nds/devkitpro/devkitarm/bin/../lib/gcc/arm-none-eabi/4.7.1/../../../../arm-none-eabi/lib/thumb\libg.a(lib_a-fwalk.o)
                0x02021e60                _fwalk
                0x02021eb4                _fwalk_reent
 .text          0x02021f14       0x9c c:/users/riedle/nds/devkitpro/devkitarm/bin/../lib/gcc/arm-none-eabi/4.7.1/../../../../arm-none-eabi/lib/thumb\libg.a(lib_a-fwrite.o)
                0x02021f14                _fwrite_r
                0x02021f88                fwrite
 .text          0x02021fb0       0x38 c:/users/riedle/nds/devkitpro/devkitarm/bin/../lib/gcc/arm-none-eabi/4.7.1/../../../../arm-none-eabi/lib/thumb\libg.a(lib_a-getenv.o)
                0x02021fb0                _findenv
                0x02021fcc                getenv
 .text          0x02021fe8       0xa8 c:/users/riedle/nds/devkitpro/devkitarm/bin/../lib/gcc/arm-none-eabi/4.7.1/../../../../arm-none-eabi/lib/thumb\libg.a(lib_a-getenv_r.o)
                0x02021fe8                _findenv_r
                0x02022080                _getenv_r
 .text          0x02022090       0x18 c:/users/riedle/nds/devkitpro/devkitarm/bin/../lib/gcc/arm-none-eabi/4.7.1/../../../../arm-none-eabi/lib/thumb\libg.a(lib_a-gmtime.o)
                0x02022090                gmtime
 .text          0x020220a8       0x10 c:/users/riedle/nds/devkitpro/devkitarm/bin/../lib/gcc/arm-none-eabi/4.7.1/../../../../arm-none-eabi/lib/thumb\libg.a(lib_a-gmtime_r.o)
                0x020220a8                gmtime_r
 .text          0x020220b8        0x0 c:/users/riedle/nds/devkitpro/devkitarm/bin/../lib/gcc/arm-none-eabi/4.7.1/../../../../arm-none-eabi/lib/thumb\libg.a(lib_a-impure.o)
 .text          0x020220b8       0x54 c:/users/riedle/nds/devkitpro/devkitarm/bin/../lib/gcc/arm-none-eabi/4.7.1/../../../../arm-none-eabi/lib/thumb\libg.a(lib_a-init.o)
                0x020220b8                __libc_init_array
 .text          0x0202210c       0x40 c:/users/riedle/nds/devkitpro/devkitarm/bin/../lib/gcc/arm-none-eabi/4.7.1/../../../../arm-none-eabi/lib/thumb\libg.a(lib_a-iprintf.o)
                0x0202210c                iprintf
                0x02022130                _iprintf_r
 .text          0x0202214c       0x18 c:/users/riedle/nds/devkitpro/devkitarm/bin/../lib/gcc/arm-none-eabi/4.7.1/../../../../arm-none-eabi/lib/thumb\libg.a(lib_a-lcltime.o)
                0x0202214c                localtime
 .text          0x02022164       0x10 c:/users/riedle/nds/devkitpro/devkitarm/bin/../lib/gcc/arm-none-eabi/4.7.1/../../../../arm-none-eabi/lib/thumb\libg.a(lib_a-lcltime_r.o)
                0x02022164                localtime_r
 .text          0x02022174      0x950 c:/users/riedle/nds/devkitpro/devkitarm/bin/../lib/gcc/arm-none-eabi/4.7.1/../../../../arm-none-eabi/lib/thumb\libg.a(lib_a-locale.o)
                0x02022868                _setlocale_r
                0x02022a64                __locale_charset
                0x02022a6c                __locale_mb_cur_max
                0x02022a78                __locale_msgcharset
                0x02022a84                __locale_cjk_lang
                0x02022a90                _localeconv_r
                0x02022a9c                setlocale
                0x02022ab8                localeconv
 .text          0x02022ac4       0xe0 c:/users/riedle/nds/devkitpro/devkitarm/bin/../lib/gcc/arm-none-eabi/4.7.1/../../../../arm-none-eabi/lib/thumb\libg.a(lib_a-makebuf.o)
                0x02022ac4                __smakebuf_r
 .text          0x02022ba4       0x30 c:/users/riedle/nds/devkitpro/devkitarm/bin/../lib/gcc/arm-none-eabi/4.7.1/../../../../arm-none-eabi/lib/thumb\libg.a(lib_a-malloc.o)
                0x02022ba4                malloc
                0x02022bbc                free
 .text          0x02022bd4      0x51c c:/users/riedle/nds/devkitpro/devkitarm/bin/../lib/gcc/arm-none-eabi/4.7.1/../../../../arm-none-eabi/lib/thumb\libg.a(lib_a-mallocr.o)
                0x02022bd4                _malloc_r
 .text          0x020230f0      0x584 c:/users/riedle/nds/devkitpro/devkitarm/bin/../lib/gcc/arm-none-eabi/4.7.1/../../../../arm-none-eabi/lib/thumb\libg.a(lib_a-mbtowc_r.o)
                0x020230f0                __utf8_mbtowc
                0x02023350                _mbtowc_r
                0x0202338c                __ascii_mbtowc
                0x020233bc                __sjis_mbtowc
                0x0202347c                __eucjp_mbtowc
                0x02023544                __jis_mbtowc
 .text          0x02023674       0x98 c:/users/riedle/nds/devkitpro/devkitarm/bin/../lib/gcc/arm-none-eabi/4.7.1/../../../../arm-none-eabi/lib/thumb\libg.a(lib_a-memchr-stub.o)
                0x02023674                memchr
 .text          0x0202370c       0x60 c:/users/riedle/nds/devkitpro/devkitarm/bin/../lib/gcc/arm-none-eabi/4.7.1/../../../../arm-none-eabi/lib/thumb\libg.a(lib_a-memcmp.o)
                0x0202370c                memcmp
 .text          0x0202376c       0x90 c:/users/riedle/nds/devkitpro/devkitarm/bin/../lib/gcc/arm-none-eabi/4.7.1/../../../../arm-none-eabi/lib/thumb\libg.a(lib_a-memcpy-stub.o)
                0x0202376c                memcpy
 .text          0x020237fc       0xb0 c:/users/riedle/nds/devkitpro/devkitarm/bin/../lib/gcc/arm-none-eabi/4.7.1/../../../../arm-none-eabi/lib/thumb\libg.a(lib_a-memmove.o)
                0x020237fc                memmove
 .text          0x020238ac       0x98 c:/users/riedle/nds/devkitpro/devkitarm/bin/../lib/gcc/arm-none-eabi/4.7.1/../../../../arm-none-eabi/lib/thumb\libg.a(lib_a-memset.o)
                0x020238ac                memset
 .text          0x02023944      0x508 c:/users/riedle/nds/devkitpro/devkitarm/bin/../lib/gcc/arm-none-eabi/4.7.1/../../../../arm-none-eabi/lib/thumb\libg.a(lib_a-mktime.o)
                0x02023b18                mktime
 .text          0x02023e4c      0x498 c:/users/riedle/nds/devkitpro/devkitarm/bin/../lib/gcc/arm-none-eabi/4.7.1/../../../../arm-none-eabi/lib/thumb\libg.a(lib_a-mktm_r.o)
                0x02023e4c                __tzcalc_limits
                0x02023fe8                _mktm_r
 .text          0x020242e4        0x8 c:/users/riedle/nds/devkitpro/devkitarm/bin/../lib/gcc/arm-none-eabi/4.7.1/../../../../arm-none-eabi/lib/thumb\libg.a(lib_a-mlock.o)
                0x020242e4                __malloc_lock
                0x020242e8                __malloc_unlock
 .text          0x020242ec       0x40 c:/users/riedle/nds/devkitpro/devkitarm/bin/../lib/gcc/arm-none-eabi/4.7.1/../../../../arm-none-eabi/lib/thumb\libg.a(lib_a-printf.o)
                0x020242ec                _printf_r
                0x02024308                printf
 .text          0x0202432c       0xc4 c:/users/riedle/nds/devkitpro/devkitarm/bin/../lib/gcc/arm-none-eabi/4.7.1/../../../../arm-none-eabi/lib/thumb\libg.a(lib_a-putc.o)
                0x0202432c                _putc_r
                0x0202438c                putc
 .text          0x020243f0       0x50 c:/users/riedle/nds/devkitpro/devkitarm/bin/../lib/gcc/arm-none-eabi/4.7.1/../../../../arm-none-eabi/lib/thumb\libg.a(lib_a-rand.o)
                0x020243f0                srand
                0x02024404                rand
 .text          0x02024440       0x1c c:/users/riedle/nds/devkitpro/devkitarm/bin/../lib/gcc/arm-none-eabi/4.7.1/../../../../arm-none-eabi/lib/thumb\libg.a(lib_a-realloc.o)
                0x02024440                realloc
 .text          0x0202445c      0x3e8 c:/users/riedle/nds/devkitpro/devkitarm/bin/../lib/gcc/arm-none-eabi/4.7.1/../../../../arm-none-eabi/lib/thumb\libg.a(lib_a-reallocr.o)
                0x0202445c                _realloc_r
 .text          0x02024844      0x144 c:/users/riedle/nds/devkitpro/devkitarm/bin/../lib/gcc/arm-none-eabi/4.7.1/../../../../arm-none-eabi/lib/thumb\libg.a(lib_a-refill.o)
                0x02024864                __srefill_r
 .text          0x02024988       0x2c c:/users/riedle/nds/devkitpro/devkitarm/bin/../lib/gcc/arm-none-eabi/4.7.1/../../../../arm-none-eabi/lib/thumb\libg.a(lib_a-remove.o)
                0x02024988                _remove_r
                0x0202499c                remove
 .text          0x020249b4       0x1c c:/users/riedle/nds/devkitpro/devkitarm/bin/../lib/gcc/arm-none-eabi/4.7.1/../../../../arm-none-eabi/lib/thumb\libg.a(lib_a-rename.o)
                0x020249b4                rename
 .text          0x020249d0       0x54 c:/users/riedle/nds/devkitpro/devkitarm/bin/../lib/gcc/arm-none-eabi/4.7.1/../../../../arm-none-eabi/lib/thumb\libg.a(lib_a-rget.o)
                0x020249d0                __srget_r
                0x02024a0c                __srget
 .text          0x02024a24       0x34 c:/users/riedle/nds/devkitpro/devkitarm/bin/../lib/gcc/arm-none-eabi/4.7.1/../../../../arm-none-eabi/lib/thumb\libg.a(lib_a-setjmp.o)
                0x02024a24                setjmp
                0x02024a3c                longjmp
 .text          0x02024a58      0x120 c:/users/riedle/nds/devkitpro/devkitarm/bin/../lib/gcc/arm-none-eabi/4.7.1/../../../../arm-none-eabi/lib/thumb\libg.a(lib_a-setvbuf.o)
                0x02024a58                setvbuf
 .text          0x02024b78      0x198 c:/users/riedle/nds/devkitpro/devkitarm/bin/../lib/gcc/arm-none-eabi/4.7.1/../../../../arm-none-eabi/lib/thumb\libg.a(lib_a-signal.o)
                0x02024b78                _init_signal_r
                0x02024bb8                _signal_r
                0x02024bf8                _raise_r
                0x02024c58                __sigtramp_r
                0x02024cac                raise
                0x02024cc4                signal
                0x02024ce0                _init_signal
                0x02024cf4                __sigtramp
 .text          0x02024d10       0xa0 c:/users/riedle/nds/devkitpro/devkitarm/bin/../lib/gcc/arm-none-eabi/4.7.1/../../../../arm-none-eabi/lib/thumb\libg.a(lib_a-siscanf.o)
                0x02024d10                siscanf
                0x02024d60                _siscanf_r
 .text          0x02024db0       0x84 c:/users/riedle/nds/devkitpro/devkitarm/bin/../lib/gcc/arm-none-eabi/4.7.1/../../../../arm-none-eabi/lib/thumb\libg.a(lib_a-sprintf.o)
                0x02024db0                _sprintf_r
                0x02024df0                sprintf
 .text          0x02024e34       0xac c:/users/riedle/nds/devkitpro/devkitarm/bin/../lib/gcc/arm-none-eabi/4.7.1/../../../../arm-none-eabi/lib/thumb\libg.a(lib_a-stdio.o)
                0x02024e34                __sread
                0x02024e60                __seofread
                0x02024e64                __swrite
                0x02024ea0                __sseek
                0x02024ed0                __sclose
 .text          0x02024ee0       0x50 c:/users/riedle/nds/devkitpro/devkitarm/bin/../lib/gcc/arm-none-eabi/4.7.1/../../../../arm-none-eabi/lib/thumb\libg.a(lib_a-strcasecmp.o)
                0x02024ee0                strcasecmp
 .text          0x02024f30       0x50 c:/users/riedle/nds/devkitpro/devkitarm/bin/../lib/gcc/arm-none-eabi/4.7.1/../../../../arm-none-eabi/lib/thumb\libg.a(lib_a-strcat.o)
                0x02024f30                strcat
 .text          0x02024f80       0xd4 c:/users/riedle/nds/devkitpro/devkitarm/bin/../lib/gcc/arm-none-eabi/4.7.1/../../../../arm-none-eabi/lib/thumb\libg.a(lib_a-strchr.o)
                0x02024f80                strchr
 .text          0x02025054       0x14 c:/users/riedle/nds/devkitpro/devkitarm/bin/../lib/gcc/arm-none-eabi/4.7.1/../../../../arm-none-eabi/lib/thumb\libg.a(lib_a-strcmp.o)
                0x02025054                strcmp
 .text          0x02025068        0xc c:/users/riedle/nds/devkitpro/devkitarm/bin/../lib/gcc/arm-none-eabi/4.7.1/../../../../arm-none-eabi/lib/thumb\libg.a(lib_a-strcoll.o)
                0x02025068                strcoll
 .text          0x02025074       0x10 c:/users/riedle/nds/devkitpro/devkitarm/bin/../lib/gcc/arm-none-eabi/4.7.1/../../../../arm-none-eabi/lib/thumb\libg.a(lib_a-strcpy.o)
                0x02025074                strcpy
 .text          0x02025084      0x2a8 c:/users/riedle/nds/devkitpro/devkitarm/bin/../lib/gcc/arm-none-eabi/4.7.1/../../../../arm-none-eabi/lib/thumb\libg.a(lib_a-strerror.o)
                0x02025084                _strerror_r
                0x02025310                strerror
 .text          0x0202532c      0xa9c c:/users/riedle/nds/devkitpro/devkitarm/bin/../lib/gcc/arm-none-eabi/4.7.1/../../../../arm-none-eabi/lib/thumb\libg.a(lib_a-strftime.o)
                0x02025404                strftime
 .text          0x02025dc8       0x48 c:/users/riedle/nds/devkitpro/devkitarm/bin/../lib/gcc/arm-none-eabi/4.7.1/../../../../arm-none-eabi/lib/thumb\libg.a(lib_a-strlcpy.o)
                0x02025dc8                strlcpy
 .text          0x02025e10       0x10 c:/users/riedle/nds/devkitpro/devkitarm/bin/../lib/gcc/arm-none-eabi/4.7.1/../../../../arm-none-eabi/lib/thumb\libg.a(lib_a-strlen.o)
                0x02025e10                strlen
 .text          0x02025e20       0x60 c:/users/riedle/nds/devkitpro/devkitarm/bin/../lib/gcc/arm-none-eabi/4.7.1/../../../../arm-none-eabi/lib/thumb\libg.a(lib_a-strncasecmp.o)
                0x02025e20                strncasecmp
 .text          0x02025e80       0xbc c:/users/riedle/nds/devkitpro/devkitarm/bin/../lib/gcc/arm-none-eabi/4.7.1/../../../../arm-none-eabi/lib/thumb\libg.a(lib_a-strncmp.o)
                0x02025e80                strncmp
 .text          0x02025f3c       0x60 c:/users/riedle/nds/devkitpro/devkitarm/bin/../lib/gcc/arm-none-eabi/4.7.1/../../../../arm-none-eabi/lib/thumb\libg.a(lib_a-strncpy.o)
                0x02025f3c                strncpy
 .text          0x02025f9c       0x50 c:/users/riedle/nds/devkitpro/devkitarm/bin/../lib/gcc/arm-none-eabi/4.7.1/../../../../arm-none-eabi/lib/thumb\libg.a(lib_a-strpbrk.o)
                0x02025f9c                strpbrk
 .text          0x02025fec       0x3c c:/users/riedle/nds/devkitpro/devkitarm/bin/../lib/gcc/arm-none-eabi/4.7.1/../../../../arm-none-eabi/lib/thumb\libg.a(lib_a-strspn.o)
                0x02025fec                strspn
 .text          0x02026028      0x4e8 c:/users/riedle/nds/devkitpro/devkitarm/bin/../lib/gcc/arm-none-eabi/4.7.1/../../../../arm-none-eabi/lib/thumb\libg.a(lib_a-strstr.o)
                0x020262ec                strstr
 .text          0x02026510      0xee8 c:/users/riedle/nds/devkitpro/devkitarm/bin/../lib/gcc/arm-none-eabi/4.7.1/../../../../arm-none-eabi/lib/thumb\libg.a(lib_a-strtod.o)
                0x02026510                _strtod_r
                0x020273a4                strtod
                0x020273c0                strtof
 .text          0x020273f8      0x190 c:/users/riedle/nds/devkitpro/devkitarm/bin/../lib/gcc/arm-none-eabi/4.7.1/../../../../arm-none-eabi/lib/thumb\libg.a(lib_a-strtol.o)
                0x020273f8                _strtol_r
                0x02027568                strtol
 .text          0x02027588      0x198 c:/users/riedle/nds/devkitpro/devkitarm/bin/../lib/gcc/arm-none-eabi/4.7.1/../../../../arm-none-eabi/lib/thumb\libg.a(lib_a-strtoul.o)
                0x02027588                _strtoul_r
                0x02027700                strtoul
 .text          0x02027720      0xa98 c:/users/riedle/nds/devkitpro/devkitarm/bin/../lib/gcc/arm-none-eabi/4.7.1/../../../../arm-none-eabi/lib/thumb\libg.a(lib_a-svfiscanf.o)
                0x02027720                _sungetc_r
                0x020277a8                __ssrefill_r
                0x020277ec                _sfread_r
                0x02027878                __ssvfiscanf_r
 .text          0x020281b8     0x1728 c:/users/riedle/nds/devkitpro/devkitarm/bin/../lib/gcc/arm-none-eabi/4.7.1/../../../../arm-none-eabi/lib/thumb\libg.a(lib_a-svfprintf.o)
                0x020281b8                _svfprintf_r
 .text          0x020298e0       0x34 c:/users/riedle/nds/devkitpro/devkitarm/bin/../lib/gcc/arm-none-eabi/4.7.1/../../../../arm-none-eabi/lib/thumb\libg.a(lib_a-system.o)
                0x020298e0                _system_r
                0x020298fc                system
 .text          0x02029914       0x20 c:/users/riedle/nds/devkitpro/devkitarm/bin/../lib/gcc/arm-none-eabi/4.7.1/../../../../arm-none-eabi/lib/thumb\libg.a(lib_a-syswrite.o)
                0x02029914                write
 .text          0x02029934       0x54 c:/users/riedle/nds/devkitpro/devkitarm/bin/../lib/gcc/arm-none-eabi/4.7.1/../../../../arm-none-eabi/lib/thumb\libg.a(lib_a-timelocal.o)
                0x02029934                __get_current_time_locale
                0x02029954                __time_load_locale
 .text          0x02029988       0x30 c:/users/riedle/nds/devkitpro/devkitarm/bin/../lib/gcc/arm-none-eabi/4.7.1/../../../../arm-none-eabi/lib/thumb\libg.a(lib_a-time.o)
                0x02029988                time
 .text          0x020299b8       0x90 c:/users/riedle/nds/devkitpro/devkitarm/bin/../lib/gcc/arm-none-eabi/4.7.1/../../../../arm-none-eabi/lib/thumb\libg.a(lib_a-tmpfile.o)
                0x020299b8                _tmpfile_r
                0x02029a34                tmpfile
 .text          0x02029a48      0x17c c:/users/riedle/nds/devkitpro/devkitarm/bin/../lib/gcc/arm-none-eabi/4.7.1/../../../../arm-none-eabi/lib/thumb\libg.a(lib_a-tmpnam.o)
                0x02029ac8                _tmpnam_r
                0x02029b14                _tempnam_r
                0x02029b90                tempnam
                0x02029bac                tmpnam
 .text          0x02029bc4        0x8 c:/users/riedle/nds/devkitpro/devkitarm/bin/../lib/gcc/arm-none-eabi/4.7.1/../../../../arm-none-eabi/lib/thumb\libg.a(lib_a-tzlock.o)
                0x02029bc4                __tz_lock
                0x02029bc8                __tz_unlock
 .text          0x02029bcc        0x0 c:/users/riedle/nds/devkitpro/devkitarm/bin/../lib/gcc/arm-none-eabi/4.7.1/../../../../arm-none-eabi/lib/thumb\libg.a(lib_a-tzvars.o)
 .text          0x02029bcc      0x188 c:/users/riedle/nds/devkitpro/devkitarm/bin/../lib/gcc/arm-none-eabi/4.7.1/../../../../arm-none-eabi/lib/thumb\libg.a(lib_a-ungetc.o)
                0x02029bcc                __submore
                0x02029c54                _ungetc_r
                0x02029d38                ungetc
 .text          0x02029d54        0x4 c:/users/riedle/nds/devkitpro/devkitarm/bin/../lib/gcc/arm-none-eabi/4.7.1/../../../../arm-none-eabi/lib/thumb\libg.a(lib_a-u_strerr.o)
                0x02029d54                _user_strerror
 .text          0x02029d58      0xed4 c:/users/riedle/nds/devkitpro/devkitarm/bin/../lib/gcc/arm-none-eabi/4.7.1/../../../../arm-none-eabi/lib/thumb\libg.a(lib_a-vfiprintf.o)
                0x02029d58                __sprint_r
                0x02029ddc                _vfiprintf_r
                0x0202ac08                vfiprintf
 *fill*         0x0202ac2c        0x4 ff
 .text          0x0202ac30     0x17e0 c:/users/riedle/nds/devkitpro/devkitarm/bin/../lib/gcc/arm-none-eabi/4.7.1/../../../../arm-none-eabi/lib/thumb\libg.a(lib_a-vfprintf.o)
                0x0202ac30                _vfprintf_r
                0x0202c3e8                vfprintf
 .text          0x0202c410      0xe44 c:/users/riedle/nds/devkitpro/devkitarm/bin/../lib/gcc/arm-none-eabi/4.7.1/../../../../arm-none-eabi/lib/thumb\libg.a(lib_a-vfscanf.o)
                0x0202c410                __svfscanf_r
                0x0202d1d4                _vfscanf_r
                0x0202d200                __svfscanf
                0x0202d220                vfscanf
 .text          0x0202d254       0xd0 c:/users/riedle/nds/devkitpro/devkitarm/bin/../lib/gcc/arm-none-eabi/4.7.1/../../../../arm-none-eabi/lib/thumb\libg.a(lib_a-wbuf.o)
                0x0202d254                __swbuf_r
                0x0202d308                __swbuf
 .text          0x0202d324       0xe8 c:/users/riedle/nds/devkitpro/devkitarm/bin/../lib/gcc/arm-none-eabi/4.7.1/../../../../arm-none-eabi/lib/thumb\libg.a(lib_a-wcrtomb.o)
                0x0202d324                _wcrtomb_r
                0x0202d38c                wcrtomb
 .text          0x0202d40c       0x40 c:/users/riedle/nds/devkitpro/devkitarm/bin/../lib/gcc/arm-none-eabi/4.7.1/../../../../arm-none-eabi/lib/thumb\libg.a(lib_a-wcsrtombs.o)
                0x0202d40c                _wcsrtombs_r
                0x0202d424                wcsrtombs
 .text          0x0202d44c      0x2a4 c:/users/riedle/nds/devkitpro/devkitarm/bin/../lib/gcc/arm-none-eabi/4.7.1/../../../../arm-none-eabi/lib/thumb\libg.a(lib_a-wctomb_r.o)
                0x0202d44c                __utf8_wctomb
                0x0202d500                _wctomb_r
                0x0202d538                __ascii_wctomb
                0x0202d558                __sjis_wctomb
                0x0202d5d4                __eucjp_wctomb
                0x0202d670                __jis_wctomb
 .text          0x0202d6f0       0xd0 c:/users/riedle/nds/devkitpro/devkitarm/bin/../lib/gcc/arm-none-eabi/4.7.1/../../../../arm-none-eabi/lib/thumb\libg.a(lib_a-wsetup.o)
                0x0202d6f0                __swsetup_r
 .text          0x0202d7c0        0x8 c:/users/riedle/nds/devkitpro/devkitarm/bin/../lib/gcc/arm-none-eabi/4.7.1/../../../../arm-none-eabi/lib/thumb\libg.a(lib_a-abs.o)
                0x0202d7c0                abs
 .text          0x0202d7c8      0x10c c:/users/riedle/nds/devkitpro/devkitarm/bin/../lib/gcc/arm-none-eabi/4.7.1/../../../../arm-none-eabi/lib/thumb\libg.a(lib_a-__call_atexit.o)
                0x0202d7c8                __call_exitprocs
 .text          0x0202d8d4       0x40 c:/users/riedle/nds/devkitpro/devkitarm/bin/../lib/gcc/arm-none-eabi/4.7.1/../../../../arm-none-eabi/lib/thumb\libg.a(lib_a-div.o)
                0x0202d8d4                div
 *fill*         0x0202d914        0x4 ff
 .text          0x0202d918     0x10a0 c:/users/riedle/nds/devkitpro/devkitarm/bin/../lib/gcc/arm-none-eabi/4.7.1/../../../../arm-none-eabi/lib/thumb\libg.a(lib_a-dtoa.o)
                0x0202da70                _dtoa_r
 .text          0x0202e9b8        0x0 c:/users/riedle/nds/devkitpro/devkitarm/bin/../lib/gcc/arm-none-eabi/4.7.1/../../../../arm-none-eabi/lib/thumb\libg.a(lib_a-environ.o)
 .text          0x0202e9b8        0x8 c:/users/riedle/nds/devkitpro/devkitarm/bin/../lib/gcc/arm-none-eabi/4.7.1/../../../../arm-none-eabi/lib/thumb\libg.a(lib_a-envlock.o)
                0x0202e9b8                __env_lock
                0x0202e9bc                __env_unlock
 .text          0x0202e9c0       0x6c c:/users/riedle/nds/devkitpro/devkitarm/bin/../lib/gcc/arm-none-eabi/4.7.1/../../../../arm-none-eabi/lib/thumb\libg.a(lib_a-fdopen.o)
                0x0202e9c0                _fdopen_r
                0x0202ea10                fdopen
 .text          0x0202ea2c       0x70 c:/users/riedle/nds/devkitpro/devkitarm/bin/../lib/gcc/arm-none-eabi/4.7.1/../../../../arm-none-eabi/lib/thumb\libg.a(lib_a-flags.o)
                0x0202ea2c                __sflags
 .text          0x0202ea9c      0x104 c:/users/riedle/nds/devkitpro/devkitarm/bin/../lib/gcc/arm-none-eabi/4.7.1/../../../../arm-none-eabi/lib/thumb\libg.a(lib_a-fputwc.o)
                0x0202ea9c                _fputwc_r
                0x0202eb74                fputwc
 .text          0x0202eba0      0x66c c:/users/riedle/nds/devkitpro/devkitarm/bin/../lib/gcc/arm-none-eabi/4.7.1/../../../../arm-none-eabi/lib/thumb\libg.a(lib_a-gdtoa-gethex.o)
                0x0202ec64                __hexdig_init
                0x0202ecbc                __gethex
 .text          0x0202f20c      0x1dc c:/users/riedle/nds/devkitpro/devkitarm/bin/../lib/gcc/arm-none-eabi/4.7.1/../../../../arm-none-eabi/lib/thumb\libg.a(lib_a-gdtoa-hexnan.o)
                0x0202f20c                __hexnan
 .text          0x0202f3e8        0x8 c:/users/riedle/nds/devkitpro/devkitarm/bin/../lib/gcc/arm-none-eabi/4.7.1/../../../../arm-none-eabi/lib/thumb\libg.a(lib_a-gettzinfo.o)
                0x0202f3e8                __gettzinfo
 .text          0x0202f3f0       0x78 c:/users/riedle/nds/devkitpro/devkitarm/bin/../lib/gcc/arm-none-eabi/4.7.1/../../../../arm-none-eabi/lib/thumb\libg.a(lib_a-iswspace.o)
                0x0202f3f0                iswspace
 .text          0x0202f468      0x1f0 c:/users/riedle/nds/devkitpro/devkitarm/bin/../lib/gcc/arm-none-eabi/4.7.1/../../../../arm-none-eabi/lib/thumb\libg.a(lib_a-jp2uc.o)
                0x0202f5f4                _jp2uc
 .text          0x0202f658        0x8 c:/users/riedle/nds/devkitpro/devkitarm/bin/../lib/gcc/arm-none-eabi/4.7.1/../../../../arm-none-eabi/lib/thumb\libg.a(lib_a-labs.o)
                0x0202f658                labs
 .text          0x0202f660      0x1f4 c:/users/riedle/nds/devkitpro/devkitarm/bin/../lib/gcc/arm-none-eabi/4.7.1/../../../../arm-none-eabi/lib/thumb\libg.a(lib_a-ldpart.o)
                0x0202f660                __part_load_locale
 .text          0x0202f854      0x104 c:/users/riedle/nds/devkitpro/devkitarm/bin/../lib/gcc/arm-none-eabi/4.7.1/../../../../arm-none-eabi/lib/thumb\libg.a(lib_a-mbrtowc.o)
                0x0202f854                _mbrtowc_r
                0x0202f8cc                mbrtowc
 .text          0x0202f958      0x978 c:/users/riedle/nds/devkitpro/devkitarm/bin/../lib/gcc/arm-none-eabi/4.7.1/../../../../arm-none-eabi/lib/thumb\libg.a(lib_a-mprec.o)
                0x0202f958                _Balloc
                0x0202f9ac                _Bfree
                0x0202f9c4                __multadd
                0x0202fa70                __s2b
                0x0202fb0c                __hi0bits
                0x0202fb44                __lo0bits
                0x0202fba4                __i2b
                0x0202fbbc                __multiply
                0x0202fd20                __pow5mult
                0x0202fdd0                __lshift
                0x0202fea0                __mcmp
                0x0202fedc                __mdiff
                0x0202ffcc                __ulp
                0x02030014                __b2d
                0x020300b8                __d2b
                0x02030170                __ratio
                0x020301ec                _mprec_log10
                0x0203022c                __copybits
                0x02030274                __any_on
 .text          0x020302d0       0x7c c:/users/riedle/nds/devkitpro/devkitarm/bin/../lib/gcc/arm-none-eabi/4.7.1/../../../../arm-none-eabi/lib/thumb\libg.a(lib_a-sccl.o)
                0x020302d0                __sccl
 .text          0x0203034c        0x8 c:/users/riedle/nds/devkitpro/devkitarm/bin/../lib/gcc/arm-none-eabi/4.7.1/../../../../arm-none-eabi/lib/thumb\libg.a(lib_a-sf_nan.o)
                0x0203034c                nanf
 .text          0x02030354       0xcc c:/users/riedle/nds/devkitpro/devkitarm/bin/../lib/gcc/arm-none-eabi/4.7.1/../../../../arm-none-eabi/lib/thumb\libg.a(lib_a-sniprintf.o)
                0x02030354                _sniprintf_r
                0x020303b8                sniprintf
 .text          0x02030420      0x208 c:/users/riedle/nds/devkitpro/devkitarm/bin/../lib/gcc/arm-none-eabi/4.7.1/../../../../arm-none-eabi/lib/thumb\libg.a(lib_a-strtoll_r.o)
                0x02030420                _strtoll_r
 .text          0x02030628      0x238 c:/users/riedle/nds/devkitpro/devkitarm/bin/../lib/gcc/arm-none-eabi/4.7.1/../../../../arm-none-eabi/lib/thumb\libg.a(lib_a-strtoull_r.o)
                0x02030628                _strtoull_r
 .text          0x02030860      0xeb4 c:/users/riedle/nds/devkitpro/devkitarm/bin/../lib/gcc/arm-none-eabi/4.7.1/../../../../arm-none-eabi/lib/thumb\libg.a(lib_a-svfiprintf.o)
                0x02030860                __ssprint_r
                0x02030990                _svfiprintf_r
 .text          0x02031714       0x18 c:/users/riedle/nds/devkitpro/devkitarm/bin/../lib/gcc/arm-none-eabi/4.7.1/../../../../arm-none-eabi/lib/thumb\libg.a(lib_a-sysclose.o)
                0x02031714                close
 .text          0x0203172c       0x1c c:/users/riedle/nds/devkitpro/devkitarm/bin/../lib/gcc/arm-none-eabi/4.7.1/../../../../arm-none-eabi/lib/thumb\libg.a(lib_a-sysfstat.o)
                0x0203172c                fstat
 .text          0x02031748       0x24 c:/users/riedle/nds/devkitpro/devkitarm/bin/../lib/gcc/arm-none-eabi/4.7.1/../../../../arm-none-eabi/lib/thumb\libg.a(lib_a-sysopen.o)
                0x02031748                open
 .text          0x0203176c       0x20 c:/users/riedle/nds/devkitpro/devkitarm/bin/../lib/gcc/arm-none-eabi/4.7.1/../../../../arm-none-eabi/lib/thumb\libg.a(lib_a-sysread.o)
                0x0203176c                read
 .text          0x0203178c      0x150 c:/users/riedle/nds/devkitpro/devkitarm/bin/../lib/gcc/arm-none-eabi/4.7.1/../../../../arm-none-eabi/lib/thumb\libg.a(lib_a-wcsnrtombs.o)
                0x0203178c                _wcsnrtombs_r
                0x020318ac                wcsnrtombs
 .text          0x020318dc       0x64 c:/users/riedle/nds/devkitpro/devkitarm/bin/../lib/gcc/arm-none-eabi/4.7.1/../../../../arm-none-eabi/lib/thumb\libg.a(lib_a-callocr.o)
                0x020318dc                _calloc_r
 .text          0x02031940      0x144 c:/users/riedle/nds/devkitpro/devkitarm/bin/../lib/gcc/arm-none-eabi/4.7.1/../../../../arm-none-eabi/lib/thumb\libsysbase.a(iosupport.o)
                0x02031940                setDefaultDevice
                0x02031954                FindDevice
                0x020319c4                RemoveDevice
                0x020319e8                AddDevice
                0x02031a64                GetDeviceOpTab
 .text          0x02031a84       0x50 c:/users/riedle/nds/devkitpro/devkitarm/bin/../lib/gcc/arm-none-eabi/4.7.1/../../../../arm-none-eabi/lib/thumb\libsysbase.a(close.o)
                0x02031a84                _close_r
 .text          0x02031ad4       0x50 c:/users/riedle/nds/devkitpro/devkitarm/bin/../lib/gcc/arm-none-eabi/4.7.1/../../../../arm-none-eabi/lib/thumb\libsysbase.a(fstat.o)
                0x02031ad4                _fstat_r
 .text          0x02031b24        0xc c:/users/riedle/nds/devkitpro/devkitarm/bin/../lib/gcc/arm-none-eabi/4.7.1/../../../../arm-none-eabi/lib/thumb\libsysbase.a(getpid.o)
                0x02031b24                _getpid_r
 .text          0x02031b30        0x4 c:/users/riedle/nds/devkitpro/devkitarm/bin/../lib/gcc/arm-none-eabi/4.7.1/../../../../arm-none-eabi/lib/thumb\libsysbase.a(isatty.o)
                0x02031b30                _isatty_r
 .text          0x02031b34        0xc c:/users/riedle/nds/devkitpro/devkitarm/bin/../lib/gcc/arm-none-eabi/4.7.1/../../../../arm-none-eabi/lib/thumb\libsysbase.a(kill.o)
                0x02031b34                _kill_r
 .text          0x02031b40       0x50 c:/users/riedle/nds/devkitpro/devkitarm/bin/../lib/gcc/arm-none-eabi/4.7.1/../../../../arm-none-eabi/lib/thumb\libsysbase.a(lseek.o)
                0x02031b40                _lseek_r
 .text          0x02031b90       0xa0 c:/users/riedle/nds/devkitpro/devkitarm/bin/../lib/gcc/arm-none-eabi/4.7.1/../../../../arm-none-eabi/lib/thumb\libsysbase.a(open.o)
                0x02031b90                _open_r
 .text          0x02031c30       0x50 c:/users/riedle/nds/devkitpro/devkitarm/bin/../lib/gcc/arm-none-eabi/4.7.1/../../../../arm-none-eabi/lib/thumb\libsysbase.a(read.o)
                0x02031c30                _read_r
 .text          0x02031c80       0x54 c:/users/riedle/nds/devkitpro/devkitarm/bin/../lib/gcc/arm-none-eabi/4.7.1/../../../../arm-none-eabi/lib/thumb\libsysbase.a(sbrk.o)
                0x02031c80                _sbrk_r
 .text          0x02031cd4       0x44 c:/users/riedle/nds/devkitpro/devkitarm/bin/../lib/gcc/arm-none-eabi/4.7.1/../../../../arm-none-eabi/lib/thumb\libsysbase.a(times.o)
                0x02031cd4                _times
                0x02031ce8                _times_r
                0x02031cf0                _gettimeofday_r
 .text          0x02031d18       0x3c c:/users/riedle/nds/devkitpro/devkitarm/bin/../lib/gcc/arm-none-eabi/4.7.1/../../../../arm-none-eabi/lib/thumb\libsysbase.a(unlink.o)
                0x02031d18                _unlink_r
 .text          0x02031d54       0x58 c:/users/riedle/nds/devkitpro/devkitarm/bin/../lib/gcc/arm-none-eabi/4.7.1/../../../../arm-none-eabi/lib/thumb\libsysbase.a(write.o)
                0x02031d54                _write_r
 .text          0x02031dac       0x18 c:/users/riedle/nds/devkitpro/devkitarm/bin/../lib/gcc/arm-none-eabi/4.7.1/../../../../arm-none-eabi/lib/thumb\libsysbase.a(_exit.o)
                0x02031dac                _exit
 .text          0x02031dc4        0x0 c:/users/riedle/nds/devkitpro/devkitarm/bin/../lib/gcc/arm-none-eabi/4.7.1/../../../../arm-none-eabi/lib/thumb\libsysbase.a(malloc_vars.o)
 .text          0x02031dc4       0x58 c:/users/riedle/nds/devkitpro/devkitarm/bin/../lib/gcc/arm-none-eabi/4.7.1/../../../../arm-none-eabi/lib/thumb\libsysbase.a(rename.o)
                0x02031dc4                _rename_r
 .text          0x02031e1c       0x4c c:/users/riedle/nds/devkitpro/devkitarm/bin/../lib/gcc/arm-none-eabi/4.7.1/../../../../arm-none-eabi/lib/thumb\libsysbase.a(build_argv.o)
                0x02031e1c                build_argv
 .text          0x02031e68        0x0 c:/users/riedle/nds/devkitpro/devkitarm/bin/../lib/gcc/arm-none-eabi/4.7.1/../../../../arm-none-eabi/lib/thumb\libsysbase.a(syscall_support.o)
 .text          0x02031e68       0x84 c:/users/riedle/nds/devkitpro/devkitarm/bin/../lib/gcc/arm-none-eabi/4.7.1/../../../../arm-none-eabi/lib/thumb\libsysbase.a(handle_manager.o)
                0x02031e68                __release_handle
                0x02031e94                __alloc_handle
                0x02031ecc                __get_handle
 .text          0x02031eec       0xa0 c:/users/riedle/nds/devkitpro/devkitarm/bin/../lib/gcc/arm-none-eabi/4.7.1/thumb\libgcc.a(_arm_truncdfsf2.o)
                0x02031eec                __truncdfsf2
                0x02031eec                __aeabi_d2f
 .text          0x02031f8c       0x3c c:/users/riedle/nds/devkitpro/devkitarm/bin/../lib/gcc/arm-none-eabi/4.7.1/thumb\libgcc.a(_aeabi_uldivmod.o)
                0x02031f8c                __aeabi_uldivmod
 .text          0x02031fc8       0x4c c:/users/riedle/nds/devkitpro/devkitarm/bin/../lib/gcc/arm-none-eabi/4.7.1/thumb\libgcc.a(_muldi3.o)
                0x02031fc8                __muldi3
                0x02031fc8                __aeabi_lmul
 .text          0x02032014       0x7c c:/users/riedle/nds/devkitpro/devkitarm/bin/../lib/gcc/arm-none-eabi/4.7.1/thumb\libgcc.a(bpabi.o)
                0x02032014                __gnu_ldivmod_helper
                0x02032054                __gnu_uldivmod_helper
 .text          0x02032090      0x3d4 c:/users/riedle/nds/devkitpro/devkitarm/bin/../lib/gcc/arm-none-eabi/4.7.1/thumb\libgcc.a(_divdi3.o)
                0x02032090                __divdi3
 .text          0x02032464      0x3a0 c:/users/riedle/nds/devkitpro/devkitarm/bin/../lib/gcc/arm-none-eabi/4.7.1/thumb\libgcc.a(_udivdi3.o)
                0x02032464                __udivdi3
 .text          0x02032804       0x48 c:/users/riedle/nds/devkitpro/devkitarm/bin/../lib/gcc/arm-none-eabi/4.7.1/thumb\libgcc.a(_clzsi2.o)
                0x02032804                __clzsi2
 .text          0x0203284c        0x0 c:/users/riedle/nds/devkitpro/devkitarm/bin/../lib/gcc/arm-none-eabi/4.7.1/thumb/crtend.o
 .text          0x0203284c        0x0 c:/users/riedle/nds/devkitpro/devkitarm/bin/../lib/gcc/arm-none-eabi/4.7.1/thumb/crtn.o
 *(.text.*)
 *fill*         0x0203284c        0x4 ff
 .text._ZN4LunaI6objectE11constructorEP9lua_State
                0x02032850      0x148 main.o
                0x02032850                Luna<object>::constructor(lua_State*)
 .text._ZN6object6getNeuEP9lua_State
                0x02032998      0x148 main.o
                0x02032998                object::getNeu(lua_State*)
 .text._ZN4LunaI6objectE17function_dispatchEP9lua_State
                0x02032ae0       0x78 main.o
                0x02032ae0                Luna<object>::function_dispatch(lua_State*)
 .text._ZN6object4setTEP9lua_State
                0x02032b58       0x14 main.o
                0x02032b58                object::setT(lua_State*)
 .text._ZN4LunaI6objectE6gc_objEP9lua_State
                0x02032b6c       0x2c main.o
                0x02032b6c                Luna<object>::gc_obj(lua_State*)
 .text._ZN4LunaI6objectE15property_setterEP9lua_State
                0x02032b98       0xb8 main.o
                0x02032b98                Luna<object>::property_setter(lua_State*)
 .text._ZN4LunaI6objectE15property_getterEP9lua_State
                0x02032c50       0xb0 main.o
                0x02032c50                Luna<object>::property_getter(lua_State*)
 .text._ZN4LunaI6objectE8RegisterEP9lua_StatePKc
                0x02032d00       0xc4 main.o
                0x02032d00                Luna<object>::Register(lua_State*, char const*)
 .text.startup  0x02032dc4       0x48 main.o
                0x02032dc4                main
 .text.unlikely
                0x02032e0c       0x38 ldo.o
 .text.unlikely
                0x02032e44       0x3c llex.o
 .text.unlikely
                0x02032e80       0x48 lparser.o
 .text._Znwj    0x02032ec8       0x60 c:/users/riedle/nds/devkitpro/devkitarm/bin/../lib/gcc/arm-none-eabi/4.7.1/../../../../arm-none-eabi/lib/thumb\libstdc++.a(new_op.o)
                0x02032ec8                operator new(unsigned int)
 .text._ZN10__cxxabiv1L24__is_gxx_exception_classEPc
                0x02032f28       0x40 c:/users/riedle/nds/devkitpro/devkitarm/bin/../lib/gcc/arm-none-eabi/4.7.1/../../../../arm-none-eabi/lib/thumb\libstdc++.a(eh_call.o)
 .text.__cxa_call_terminate
                0x02032f68       0x24 c:/users/riedle/nds/devkitpro/devkitarm/bin/../lib/gcc/arm-none-eabi/4.7.1/../../../../arm-none-eabi/lib/thumb\libstdc++.a(eh_call.o)
                0x02032f68                __cxa_call_terminate
 .text.__cxa_call_unexpected
                0x02032f8c       0xec c:/users/riedle/nds/devkitpro/devkitarm/bin/../lib/gcc/arm-none-eabi/4.7.1/../../../../arm-none-eabi/lib/thumb\libstdc++.a(eh_call.o)
                0x02032f8c                __cxa_call_unexpected
 .text._ZL12read_sleb128PKhPl
                0x02033078       0x34 c:/users/riedle/nds/devkitpro/devkitarm/bin/../lib/gcc/arm-none-eabi/4.7.1/../../../../arm-none-eabi/lib/thumb\libstdc++.a(eh_personality.o)
 .text._ZL28read_encoded_value_with_basehjPKhPj
                0x020330ac       0xd8 c:/users/riedle/nds/devkitpro/devkitarm/bin/../lib/gcc/arm-none-eabi/4.7.1/../../../../arm-none-eabi/lib/thumb\libstdc++.a(eh_personality.o)
 .text._ZL21base_of_encoded_valuehP15_Unwind_Context
                0x02033184       0x4c c:/users/riedle/nds/devkitpro/devkitarm/bin/../lib/gcc/arm-none-eabi/4.7.1/../../../../arm-none-eabi/lib/thumb\libstdc++.a(eh_personality.o)
 .text._ZL17parse_lsda_headerP15_Unwind_ContextPKhP16lsda_header_info
                0x020331d0       0x98 c:/users/riedle/nds/devkitpro/devkitarm/bin/../lib/gcc/arm-none-eabi/4.7.1/../../../../arm-none-eabi/lib/thumb\libstdc++.a(eh_personality.o)
 .text.__gxx_personality_v0
                0x02033268      0x3ec c:/users/riedle/nds/devkitpro/devkitarm/bin/../lib/gcc/arm-none-eabi/4.7.1/../../../../arm-none-eabi/lib/thumb\libstdc++.a(eh_personality.o)
                0x02033268                __gxx_personality_v0
 .text._ZdlPv   0x02033654       0x10 c:/users/riedle/nds/devkitpro/devkitarm/bin/../lib/gcc/arm-none-eabi/4.7.1/../../../../arm-none-eabi/lib/thumb\libstdc++.a(del_op.o)
                0x02033654                operator delete(void*)
 .text._ZN10__cxxabiv111__terminateEPFvvE
                0x02033664       0x2c c:/users/riedle/nds/devkitpro/devkitarm/bin/../lib/gcc/arm-none-eabi/4.7.1/../../../../arm-none-eabi/lib/thumb\libstdc++.a(eh_terminate.o)
                0x02033664                __cxxabiv1::__terminate(void (*)())
 .text._ZSt9terminatev
                0x02033690       0x10 c:/users/riedle/nds/devkitpro/devkitarm/bin/../lib/gcc/arm-none-eabi/4.7.1/../../../../arm-none-eabi/lib/thumb\libstdc++.a(eh_terminate.o)
                0x02033690                std::terminate()
 .text._ZN10__cxxabiv112__unexpectedEPFvvE
                0x020336a0        0xc c:/users/riedle/nds/devkitpro/devkitarm/bin/../lib/gcc/arm-none-eabi/4.7.1/../../../../arm-none-eabi/lib/thumb\libstdc++.a(eh_terminate.o)
                0x020336a0                __cxxabiv1::__unexpected(void (*)())
 .text._ZSt10unexpectedv
                0x020336ac       0x10 c:/users/riedle/nds/devkitpro/devkitarm/bin/../lib/gcc/arm-none-eabi/4.7.1/../../../../arm-none-eabi/lib/thumb\libstdc++.a(eh_terminate.o)
                0x020336ac                std::unexpected()
 .text._ZSt13set_terminatePFvvE
                0x020336bc       0x10 c:/users/riedle/nds/devkitpro/devkitarm/bin/../lib/gcc/arm-none-eabi/4.7.1/../../../../arm-none-eabi/lib/thumb\libstdc++.a(eh_terminate.o)
                0x020336bc                std::set_terminate(void (*)())
 .text._ZSt14set_unexpectedPFvvE
                0x020336cc       0x10 c:/users/riedle/nds/devkitpro/devkitarm/bin/../lib/gcc/arm-none-eabi/4.7.1/../../../../arm-none-eabi/lib/thumb\libstdc++.a(eh_terminate.o)
                0x020336cc                std::set_unexpected(void (*)())
 .text._ZNSt9exceptionD2Ev
                0x020336dc        0xc c:/users/riedle/nds/devkitpro/devkitarm/bin/../lib/gcc/arm-none-eabi/4.7.1/../../../../arm-none-eabi/lib/thumb\libstdc++.a(eh_exception.o)
                0x020336dc                std::exception::~exception()
                0x020336dc                std::exception::~exception()
 .text._ZNSt13bad_exceptionD2Ev
                0x020336e8        0xc c:/users/riedle/nds/devkitpro/devkitarm/bin/../lib/gcc/arm-none-eabi/4.7.1/../../../../arm-none-eabi/lib/thumb\libstdc++.a(eh_exception.o)
                0x020336e8                std::bad_exception::~bad_exception()
                0x020336e8                std::bad_exception::~bad_exception()
 .text._ZN10__cxxabiv115__forced_unwindD2Ev
                0x020336f4        0xc c:/users/riedle/nds/devkitpro/devkitarm/bin/../lib/gcc/arm-none-eabi/4.7.1/../../../../arm-none-eabi/lib/thumb\libstdc++.a(eh_exception.o)
                0x020336f4                __cxxabiv1::__forced_unwind::~__forced_unwind()
                0x020336f4                __cxxabiv1::__forced_unwind::~__forced_unwind()
 .text._ZN10__cxxabiv119__foreign_exceptionD2Ev
                0x02033700        0xc c:/users/riedle/nds/devkitpro/devkitarm/bin/../lib/gcc/arm-none-eabi/4.7.1/../../../../arm-none-eabi/lib/thumb\libstdc++.a(eh_exception.o)
                0x02033700                __cxxabiv1::__foreign_exception::~__foreign_exception()
                0x02033700                __cxxabiv1::__foreign_exception::~__foreign_exception()
 .text._ZNKSt9exception4whatEv
                0x0203370c        0x8 c:/users/riedle/nds/devkitpro/devkitarm/bin/../lib/gcc/arm-none-eabi/4.7.1/../../../../arm-none-eabi/lib/thumb\libstdc++.a(eh_exception.o)
                0x0203370c                std::exception::what() const
 .text._ZNKSt13bad_exception4whatEv
                0x02033714        0x8 c:/users/riedle/nds/devkitpro/devkitarm/bin/../lib/gcc/arm-none-eabi/4.7.1/../../../../arm-none-eabi/lib/thumb\libstdc++.a(eh_exception.o)
                0x02033714                std::bad_exception::what() const
 .text._ZN10__cxxabiv119__foreign_exceptionD0Ev
                0x0203371c       0x1c c:/users/riedle/nds/devkitpro/devkitarm/bin/../lib/gcc/arm-none-eabi/4.7.1/../../../../arm-none-eabi/lib/thumb\libstdc++.a(eh_exception.o)
                0x0203371c                __cxxabiv1::__foreign_exception::~__foreign_exception()
 .text._ZN10__cxxabiv115__forced_unwindD0Ev
                0x02033738       0x1c c:/users/riedle/nds/devkitpro/devkitarm/bin/../lib/gcc/arm-none-eabi/4.7.1/../../../../arm-none-eabi/lib/thumb\libstdc++.a(eh_exception.o)
                0x02033738                __cxxabiv1::__forced_unwind::~__forced_unwind()
 .text._ZNSt9exceptionD0Ev
                0x02033754       0x1c c:/users/riedle/nds/devkitpro/devkitarm/bin/../lib/gcc/arm-none-eabi/4.7.1/../../../../arm-none-eabi/lib/thumb\libstdc++.a(eh_exception.o)
                0x02033754                std::exception::~exception()
 .text._ZNSt13bad_exceptionD0Ev
                0x02033770       0x1c c:/users/riedle/nds/devkitpro/devkitarm/bin/../lib/gcc/arm-none-eabi/4.7.1/../../../../arm-none-eabi/lib/thumb\libstdc++.a(eh_exception.o)
                0x02033770                std::bad_exception::~bad_exception()
 .text.__cxa_allocate_exception
                0x0203378c       0x68 c:/users/riedle/nds/devkitpro/devkitarm/bin/../lib/gcc/arm-none-eabi/4.7.1/../../../../arm-none-eabi/lib/thumb\libstdc++.a(eh_alloc.o)
                0x0203378c                __cxa_allocate_exception
 .text.__cxa_free_exception
                0x020337f4       0x38 c:/users/riedle/nds/devkitpro/devkitarm/bin/../lib/gcc/arm-none-eabi/4.7.1/../../../../arm-none-eabi/lib/thumb\libstdc++.a(eh_alloc.o)
                0x020337f4                __cxa_free_exception
 .text.__cxa_allocate_dependent_exception
                0x0203382c       0x60 c:/users/riedle/nds/devkitpro/devkitarm/bin/../lib/gcc/arm-none-eabi/4.7.1/../../../../arm-none-eabi/lib/thumb\libstdc++.a(eh_alloc.o)
                0x0203382c                __cxa_allocate_dependent_exception
 .text.__cxa_free_dependent_exception
                0x0203388c       0x3c c:/users/riedle/nds/devkitpro/devkitarm/bin/../lib/gcc/arm-none-eabi/4.7.1/../../../../arm-none-eabi/lib/thumb\libstdc++.a(eh_alloc.o)
                0x0203388c                __cxa_free_dependent_exception
 .text._ZNKSt9bad_alloc4whatEv
                0x020338c8        0x8 c:/users/riedle/nds/devkitpro/devkitarm/bin/../lib/gcc/arm-none-eabi/4.7.1/../../../../arm-none-eabi/lib/thumb\libstdc++.a(bad_alloc.o)
                0x020338c8                std::bad_alloc::what() const
 .text._ZNSt9bad_allocD2Ev
                0x020338d0       0x1c c:/users/riedle/nds/devkitpro/devkitarm/bin/../lib/gcc/arm-none-eabi/4.7.1/../../../../arm-none-eabi/lib/thumb\libstdc++.a(bad_alloc.o)
                0x020338d0                std::bad_alloc::~bad_alloc()
                0x020338d0                std::bad_alloc::~bad_alloc()
 .text._ZNSt9bad_allocD0Ev
                0x020338ec       0x18 c:/users/riedle/nds/devkitpro/devkitarm/bin/../lib/gcc/arm-none-eabi/4.7.1/../../../../arm-none-eabi/lib/thumb\libstdc++.a(bad_alloc.o)
                0x020338ec                std::bad_alloc::~bad_alloc()
 .text._ZNK10__cxxabiv117__class_type_info11__do_upcastEPKS0_PPv
                0x02033904       0x40 c:/users/riedle/nds/devkitpro/devkitarm/bin/../lib/gcc/arm-none-eabi/4.7.1/../../../../arm-none-eabi/lib/thumb\libstdc++.a(class_type_info.o)
                0x02033904                __cxxabiv1::__class_type_info::__do_upcast(__cxxabiv1::__class_type_info const*, void**) const
 .text._ZNK10__cxxabiv117__class_type_info20__do_find_public_srcEiPKvPKS0_S2_
                0x02033944       0x14 c:/users/riedle/nds/devkitpro/devkitarm/bin/../lib/gcc/arm-none-eabi/4.7.1/../../../../arm-none-eabi/lib/thumb\libstdc++.a(class_type_info.o)
                0x02033944                __cxxabiv1::__class_type_info::__do_find_public_src(int, void const*, __cxxabiv1::__class_type_info const*, void const*) const
 .text._ZNK10__cxxabiv117__class_type_info11__do_upcastEPKS0_PKvRNS0_15__upcast_resultE
                0x02033958       0x24 c:/users/riedle/nds/devkitpro/devkitarm/bin/../lib/gcc/arm-none-eabi/4.7.1/../../../../arm-none-eabi/lib/thumb\libstdc++.a(class_type_info.o)
                0x02033958                __cxxabiv1::__class_type_info::__do_upcast(__cxxabiv1::__class_type_info const*, void const*, __cxxabiv1::__class_type_info::__upcast_result&) const
 .text._ZN10__cxxabiv117__class_type_infoD2Ev
                0x0203397c       0x1c c:/users/riedle/nds/devkitpro/devkitarm/bin/../lib/gcc/arm-none-eabi/4.7.1/../../../../arm-none-eabi/lib/thumb\libstdc++.a(class_type_info.o)
                0x0203397c                __cxxabiv1::__class_type_info::~__class_type_info()
                0x0203397c                __cxxabiv1::__class_type_info::~__class_type_info()
 .text._ZN10__cxxabiv117__class_type_infoD0Ev
                0x02033998       0x18 c:/users/riedle/nds/devkitpro/devkitarm/bin/../lib/gcc/arm-none-eabi/4.7.1/../../../../arm-none-eabi/lib/thumb\libstdc++.a(class_type_info.o)
                0x02033998                __cxxabiv1::__class_type_info::~__class_type_info()
 .text._ZNK10__cxxabiv117__class_type_info12__do_dyncastEiNS0_10__sub_kindEPKS0_PKvS3_S5_RNS0_16__dyncast_resultE
                0x020339b0       0x44 c:/users/riedle/nds/devkitpro/devkitarm/bin/../lib/gcc/arm-none-eabi/4.7.1/../../../../arm-none-eabi/lib/thumb\libstdc++.a(class_type_info.o)
                0x020339b0                __cxxabiv1::__class_type_info::__do_dyncast(int, __cxxabiv1::__class_type_info::__sub_kind, __cxxabiv1::__class_type_info const*, void const*, __cxxabiv1::__class_type_info const*, void const*, __cxxabiv1::__class_type_info::__dyncast_result&) const
 .text._ZNK10__cxxabiv117__class_type_info10__do_catchEPKSt9type_infoPPvj
                0x020339f4       0x40 c:/users/riedle/nds/devkitpro/devkitarm/bin/../lib/gcc/arm-none-eabi/4.7.1/../../../../arm-none-eabi/lib/thumb\libstdc++.a(class_type_info.o)
                0x020339f4                __cxxabiv1::__class_type_info::__do_catch(std::type_info const*, void**, unsigned int) const
 .text._ZSt15set_new_handlerPFvvE
                0x02033a34       0x10 c:/users/riedle/nds/devkitpro/devkitarm/bin/../lib/gcc/arm-none-eabi/4.7.1/../../../../arm-none-eabi/lib/thumb\libstdc++.a(new_handler.o)
                0x02033a34                std::set_new_handler(void (*)())
 .text.__cxa_end_cleanup
                0x02033a44        0xc c:/users/riedle/nds/devkitpro/devkitarm/bin/../lib/gcc/arm-none-eabi/4.7.1/../../../../arm-none-eabi/lib/thumb\libstdc++.a(eh_arm.o)
                0x02033a44                __cxa_end_cleanup
 .text.__cxa_type_match
                0x02033a50       0xcc c:/users/riedle/nds/devkitpro/devkitarm/bin/../lib/gcc/arm-none-eabi/4.7.1/../../../../arm-none-eabi/lib/thumb\libstdc++.a(eh_arm.o)
                0x02033a50                __cxa_type_match
 .text.__cxa_begin_cleanup
                0x02033b1c       0x64 c:/users/riedle/nds/devkitpro/devkitarm/bin/../lib/gcc/arm-none-eabi/4.7.1/../../../../arm-none-eabi/lib/thumb\libstdc++.a(eh_arm.o)
                0x02033b1c                __cxa_begin_cleanup
 .text.__gnu_end_cleanup
                0x02033b80       0x74 c:/users/riedle/nds/devkitpro/devkitarm/bin/../lib/gcc/arm-none-eabi/4.7.1/../../../../arm-none-eabi/lib/thumb\libstdc++.a(eh_arm.o)
                0x02033b80                __gnu_end_cleanup
 .text._ZL23__gxx_exception_cleanup19_Unwind_Reason_CodeP21_Unwind_Control_Block
                0x02033bf4       0x30 c:/users/riedle/nds/devkitpro/devkitarm/bin/../lib/gcc/arm-none-eabi/4.7.1/../../../../arm-none-eabi/lib/thumb\libstdc++.a(eh_throw.o)
 .text.__cxa_throw
                0x02033c24       0x68 c:/users/riedle/nds/devkitpro/devkitarm/bin/../lib/gcc/arm-none-eabi/4.7.1/../../../../arm-none-eabi/lib/thumb\libstdc++.a(eh_throw.o)
                0x02033c24                __cxa_throw
 .text.__cxa_rethrow
                0x02033c8c       0x74 c:/users/riedle/nds/devkitpro/devkitarm/bin/../lib/gcc/arm-none-eabi/4.7.1/../../../../arm-none-eabi/lib/thumb\libstdc++.a(eh_throw.o)
                0x02033c8c                __cxa_rethrow
 .text.__cxa_pure_virtual
                0x02033d00       0x14 c:/users/riedle/nds/devkitpro/devkitarm/bin/../lib/gcc/arm-none-eabi/4.7.1/../../../../arm-none-eabi/lib/thumb\libstdc++.a(pure.o)
                0x02033d00                __cxa_pure_virtual
 .text.__cxa_deleted_virtual
                0x02033d14       0x14 c:/users/riedle/nds/devkitpro/devkitarm/bin/../lib/gcc/arm-none-eabi/4.7.1/../../../../arm-none-eabi/lib/thumb\libstdc++.a(pure.o)
                0x02033d14                __cxa_deleted_virtual
 .text.__cxa_get_globals_fast
                0x02033d28        0x8 c:/users/riedle/nds/devkitpro/devkitarm/bin/../lib/gcc/arm-none-eabi/4.7.1/../../../../arm-none-eabi/lib/thumb\libstdc++.a(eh_globals.o)
                0x02033d28                __cxa_get_globals_fast
 .text.__cxa_get_globals
                0x02033d30        0x8 c:/users/riedle/nds/devkitpro/devkitarm/bin/../lib/gcc/arm-none-eabi/4.7.1/../../../../arm-none-eabi/lib/thumb\libstdc++.a(eh_globals.o)
                0x02033d30                __cxa_get_globals
 .text.__cxa_get_exception_ptr
                0x02033d38        0x4 c:/users/riedle/nds/devkitpro/devkitarm/bin/../lib/gcc/arm-none-eabi/4.7.1/../../../../arm-none-eabi/lib/thumb\libstdc++.a(eh_catch.o)
                0x02033d38                __cxa_get_exception_ptr
 .text.__cxa_begin_catch
                0x02033d3c       0x88 c:/users/riedle/nds/devkitpro/devkitarm/bin/../lib/gcc/arm-none-eabi/4.7.1/../../../../arm-none-eabi/lib/thumb\libstdc++.a(eh_catch.o)
                0x02033d3c                __cxa_begin_catch
 .text.__cxa_end_catch
                0x02033dc4       0x94 c:/users/riedle/nds/devkitpro/devkitarm/bin/../lib/gcc/arm-none-eabi/4.7.1/../../../../arm-none-eabi/lib/thumb\libstdc++.a(eh_catch.o)
                0x02033dc4                __cxa_end_catch
 .text._ZSt18uncaught_exceptionv
                0x02033e58       0x14 c:/users/riedle/nds/devkitpro/devkitarm/bin/../lib/gcc/arm-none-eabi/4.7.1/../../../../arm-none-eabi/lib/thumb\libstdc++.a(eh_catch.o)
                0x02033e58                std::uncaught_exception()
 .text._ZNK10__cxxabiv120__si_class_type_info12__do_dyncastEiNS_17__class_type_info10__sub_kindEPKS1_PKvS4_S6_RNS1_16__dyncast_resultE
                0x02033e6c       0x90 c:/users/riedle/nds/devkitpro/devkitarm/bin/../lib/gcc/arm-none-eabi/4.7.1/../../../../arm-none-eabi/lib/thumb\libstdc++.a(si_class_type_info.o)
                0x02033e6c                __cxxabiv1::__si_class_type_info::__do_dyncast(int, __cxxabiv1::__class_type_info::__sub_kind, __cxxabiv1::__class_type_info const*, void const*, __cxxabiv1::__class_type_info const*, void const*, __cxxabiv1::__class_type_info::__dyncast_result&) const
 .text._ZN10__cxxabiv120__si_class_type_infoD2Ev
                0x02033efc       0x1c c:/users/riedle/nds/devkitpro/devkitarm/bin/../lib/gcc/arm-none-eabi/4.7.1/../../../../arm-none-eabi/lib/thumb\libstdc++.a(si_class_type_info.o)
                0x02033efc                __cxxabiv1::__si_class_type_info::~__si_class_type_info()
                0x02033efc                __cxxabiv1::__si_class_type_info::~__si_class_type_info()
 .text._ZN10__cxxabiv120__si_class_type_infoD0Ev
                0x02033f18       0x18 c:/users/riedle/nds/devkitpro/devkitarm/bin/../lib/gcc/arm-none-eabi/4.7.1/../../../../arm-none-eabi/lib/thumb\libstdc++.a(si_class_type_info.o)
                0x02033f18                __cxxabiv1::__si_class_type_info::~__si_class_type_info()
 .text._ZNK10__cxxabiv120__si_class_type_info11__do_upcastEPKNS_17__class_type_infoEPKvRNS1_15__upcast_resultE
                0x02033f30       0x30 c:/users/riedle/nds/devkitpro/devkitarm/bin/../lib/gcc/arm-none-eabi/4.7.1/../../../../arm-none-eabi/lib/thumb\libstdc++.a(si_class_type_info.o)
                0x02033f30                __cxxabiv1::__si_class_type_info::__do_upcast(__cxxabiv1::__class_type_info const*, void const*, __cxxabiv1::__class_type_info::__upcast_result&) const
 .text._ZNK10__cxxabiv120__si_class_type_info20__do_find_public_srcEiPKvPKNS_17__class_type_infoES2_
                0x02033f60       0x40 c:/users/riedle/nds/devkitpro/devkitarm/bin/../lib/gcc/arm-none-eabi/4.7.1/../../../../arm-none-eabi/lib/thumb\libstdc++.a(si_class_type_info.o)
                0x02033f60                __cxxabiv1::__si_class_type_info::__do_find_public_src(int, void const*, __cxxabiv1::__class_type_info const*, void const*) const
 .text._ZNSt9type_infoD2Ev
                0x02033fa0        0xc c:/users/riedle/nds/devkitpro/devkitarm/bin/../lib/gcc/arm-none-eabi/4.7.1/../../../../arm-none-eabi/lib/thumb\libstdc++.a(tinfo.o)
                0x02033fa0                std::type_info::~type_info()
                0x02033fa0                std::type_info::~type_info()
 .text._ZNKSt9type_info14__is_pointer_pEv
                0x02033fac        0x4 c:/users/riedle/nds/devkitpro/devkitarm/bin/../lib/gcc/arm-none-eabi/4.7.1/../../../../arm-none-eabi/lib/thumb\libstdc++.a(tinfo.o)
                0x02033fac                std::type_info::__is_pointer_p() const
 .text._ZNKSt9type_info15__is_function_pEv
                0x02033fb0        0x4 c:/users/riedle/nds/devkitpro/devkitarm/bin/../lib/gcc/arm-none-eabi/4.7.1/../../../../arm-none-eabi/lib/thumb\libstdc++.a(tinfo.o)
                0x02033fb0                std::type_info::__is_function_p() const
 .text._ZNKSt9type_info11__do_upcastEPKN10__cxxabiv117__class_type_infoEPPv
                0x02033fb4        0x4 c:/users/riedle/nds/devkitpro/devkitarm/bin/../lib/gcc/arm-none-eabi/4.7.1/../../../../arm-none-eabi/lib/thumb\libstdc++.a(tinfo.o)
                0x02033fb4                std::type_info::__do_upcast(__cxxabiv1::__class_type_info const*, void**) const
 .text._ZNSt9type_infoD0Ev
                0x02033fb8       0x1c c:/users/riedle/nds/devkitpro/devkitarm/bin/../lib/gcc/arm-none-eabi/4.7.1/../../../../arm-none-eabi/lib/thumb\libstdc++.a(tinfo.o)
                0x02033fb8                std::type_info::~type_info()
 .text._ZNKSt9type_infoeqERKS_
                0x02033fd4       0x30 c:/users/riedle/nds/devkitpro/devkitarm/bin/../lib/gcc/arm-none-eabi/4.7.1/../../../../arm-none-eabi/lib/thumb\libstdc++.a(tinfo.o)
                0x02033fd4                std::type_info::operator==(std::type_info const&) const
 .text._ZNKSt9type_info10__do_catchEPKS_PPvj
                0x02034004        0xc c:/users/riedle/nds/devkitpro/devkitarm/bin/../lib/gcc/arm-none-eabi/4.7.1/../../../../arm-none-eabi/lib/thumb\libstdc++.a(tinfo.o)
                0x02034004                std::type_info::__do_catch(std::type_info const*, void**, unsigned int) const
 .text._ZN9__gnu_cxx27__verbose_terminate_handlerEv
                0x02034010      0x11c c:/users/riedle/nds/devkitpro/devkitarm/bin/../lib/gcc/arm-none-eabi/4.7.1/../../../../arm-none-eabi/lib/thumb\libstdc++.a(vterminate.o)
                0x02034010                __gnu_cxx::__verbose_terminate_handler()
 .text.__cxa_current_exception_type
                0x0203412c       0x28 c:/users/riedle/nds/devkitpro/devkitarm/bin/../lib/gcc/arm-none-eabi/4.7.1/../../../../arm-none-eabi/lib/thumb\libstdc++.a(eh_type.o)
                0x0203412c                __cxa_current_exception_type
 *fill*         0x02034154        0x4 ff
 .text.__cxa_current_exception_type.stub
                0x02034158      0x150 linker stubs
 *(.stub)
 *(.gnu.warning)
 *(.gnu.linkonce.t*)
 *(.glue_7)
 .glue_7        0x00000000        0x0 linker stubs
 *(.glue_7t)
 .glue_7t       0x00000000        0x0 linker stubs
                0x020342a8                . = ALIGN (0x4)

.vfp11_veneer   0x020342b8        0x0
 .vfp11_veneer  0x00000000        0x0 linker stubs

.v4_bx          0x020342b8        0x0
 .v4_bx         0x00000000        0x0 linker stubs

.iplt           0x020342b8        0x0
 .iplt          0x00000000        0x0 c:/users/riedle/nds/devkitpro/devkitarm/bin/../lib/gcc/arm-none-eabi/4.7.1/../../../../arm-none-eabi/lib/thumb/ds_arm9_crt0.o

.fini           0x020342b8        0xc
 *(.fini)
 .fini          0x020342b8        0x4 c:/users/riedle/nds/devkitpro/devkitarm/bin/../lib/gcc/arm-none-eabi/4.7.1/thumb/crti.o
                0x020342b8                _fini
 .fini          0x020342bc        0x8 c:/users/riedle/nds/devkitpro/devkitarm/bin/../lib/gcc/arm-none-eabi/4.7.1/thumb/crtn.o
                0x020342c4                __text_end = .

.rodata         0x020342c8     0xd020
 *(.rodata)
 .rodata        0x020342c8      0x168 lapi.o
                0x020343a8                lua_ident
 .rodata        0x02034430      0x114 lbaselib.o
 .rodata        0x02034544       0x68 lbitlib.o
 *fill*         0x020345ac        0x4 ff
 .rodata        0x020345b0      0x100 lcode.o
 .rodata        0x020346b0       0x38 lcorolib.o
 .rodata        0x020346e8      0x104 lctype.o
                0x020346e8                luai_ctype_
 .rodata        0x020347ec       0x9c ldblib.o
 .rodata        0x02034888      0x1cc ldebug.o
 .rodata        0x02034a54      0x1b8 lgc.o
 .rodata        0x02034c0c       0x58 linit.o
 .rodata        0x02034c64       0xe8 liolib.o
 .rodata        0x02034d4c      0x474 llex.o
 .rodata        0x020351c0       0xe0 lmathlib.o
 .rodata        0x020352a0       0x3c loadlib.o
 *fill*         0x020352dc        0x4 ff
 .rodata        0x020352e0      0x130 lobject.o
                0x02035400                luaO_nilobject_
 .rodata        0x02035410       0xcc lopcodes.o
                0x02035410                luaP_opmodes
                0x02035438                luaP_opnames
 .rodata        0x020354dc       0x94 loslib.o
 .rodata        0x02035570       0xf8 lparser.o
 .rodata        0x02035668      0x1b0 lstrlib.o
 .rodata        0x02035818       0x90 ltable.o
 .rodata        0x020358a8       0x38 ltablib.o
 .rodata        0x020358e0       0x80 ltm.o
                0x02035924                luaT_typenames_
 .rodata        0x02035960      0x16c lvm.o
 .rodata        0x02035acc      0x200 c:/Users/riedle/NDS/DEVKITPRO/libnds/lib\libnds9.a(console.o)
 .rodata        0x02035ccc     0x2004 c:/Users/riedle/NDS/DEVKITPRO/libnds/lib\libnds9.a(default_font.bin.o)
                0x02035ccc                default_font_bin
                0x02037ccc                default_font_bin_size
                0x02037ccc                default_font_bin_end
 .rodata        0x02037cd0      0x308 c:/Users/riedle/NDS/DEVKITPRO/libnds/lib\libnds9.a(trig.o)
                0x02037cd0                SIN_LUT
                0x02037dd4                TAN_LUT
 .rodata        0x02037fd8      0xf7c c:/users/riedle/nds/devkitpro/devkitarm/bin/../lib/gcc/arm-none-eabi/4.7.1/../../../../arm-none-eabi/lib/thumb\libstdc++.a(cp-demangle.o)
 *fill*         0x02038f54        0x4 ff
 .rodata        0x02038f58       0x40 c:/users/riedle/nds/devkitpro/devkitarm/bin/../lib/gcc/arm-none-eabi/4.7.1/../../../../arm-none-eabi/lib/thumb\libm.a(lib_a-s_atan.o)
 .rodata        0x02038f98       0x30 c:/users/riedle/nds/devkitpro/devkitarm/bin/../lib/gcc/arm-none-eabi/4.7.1/../../../../arm-none-eabi/lib/thumb\libm.a(lib_a-e_exp.o)
 .rodata        0x02038fc8       0x10 c:/users/riedle/nds/devkitpro/devkitarm/bin/../lib/gcc/arm-none-eabi/4.7.1/../../../../arm-none-eabi/lib/thumb\libm.a(lib_a-e_fmod.o)
 .rodata        0x02038fd8       0x30 c:/users/riedle/nds/devkitpro/devkitarm/bin/../lib/gcc/arm-none-eabi/4.7.1/../../../../arm-none-eabi/lib/thumb\libm.a(lib_a-e_pow.o)
 .rodata        0x02039008      0x188 c:/users/riedle/nds/devkitpro/devkitarm/bin/../lib/gcc/arm-none-eabi/4.7.1/../../../../arm-none-eabi/lib/thumb\libm.a(lib_a-e_rem_pio2.o)
 .rodata        0x02039190       0x50 c:/users/riedle/nds/devkitpro/devkitarm/bin/../lib/gcc/arm-none-eabi/4.7.1/../../../../arm-none-eabi/lib/thumb\libm.a(lib_a-k_rem_pio2.o)
 .rodata        0x020391e0       0x10 c:/users/riedle/nds/devkitpro/devkitarm/bin/../lib/gcc/arm-none-eabi/4.7.1/../../../../arm-none-eabi/lib/thumb\libm.a(lib_a-s_rint.o)
 .rodata        0x020391f0       0x14 c:/users/riedle/nds/devkitpro/devkitarm/bin/../lib/gcc/arm-none-eabi/4.7.1/thumb\libgcc.a(unwind-arm.o)
 .rodata        0x02039204      0x104 c:/users/riedle/nds/devkitpro/devkitarm/bin/../lib/gcc/arm-none-eabi/4.7.1/../../../../arm-none-eabi/lib/thumb\libg.a(lib_a-ctype_.o)
                0x02039204                _ctype_
 .rodata        0x02039308        0x4 c:/users/riedle/nds/devkitpro/devkitarm/bin/../lib/gcc/arm-none-eabi/4.7.1/../../../../arm-none-eabi/lib/thumb\libg.a(lib_a-impure.o)
                0x02039308                _global_impure_ptr
 .rodata        0x0203930c       0xf0 c:/users/riedle/nds/devkitpro/devkitarm/bin/../lib/gcc/arm-none-eabi/4.7.1/../../../../arm-none-eabi/lib/thumb\libg.a(lib_a-locale.o)
 .rodata        0x020393fc       0xa8 c:/users/riedle/nds/devkitpro/devkitarm/bin/../lib/gcc/arm-none-eabi/4.7.1/../../../../arm-none-eabi/lib/thumb\libg.a(lib_a-mbtowc_r.o)
 .rodata        0x020394a4       0x60 c:/users/riedle/nds/devkitpro/devkitarm/bin/../lib/gcc/arm-none-eabi/4.7.1/../../../../arm-none-eabi/lib/thumb\libg.a(lib_a-mktime.o)
 .rodata        0x02039504       0x68 c:/users/riedle/nds/devkitpro/devkitarm/bin/../lib/gcc/arm-none-eabi/4.7.1/../../../../arm-none-eabi/lib/thumb\libg.a(lib_a-mktm_r.o)
 .rodata        0x0203956c      0x23c c:/users/riedle/nds/devkitpro/devkitarm/bin/../lib/gcc/arm-none-eabi/4.7.1/../../../../arm-none-eabi/lib/thumb\libg.a(lib_a-strerror.o)
 .rodata        0x020397a8      0x158 c:/users/riedle/nds/devkitpro/devkitarm/bin/../lib/gcc/arm-none-eabi/4.7.1/../../../../arm-none-eabi/lib/thumb\libg.a(lib_a-strftime.o)
 .rodata        0x02039900       0xf8 c:/users/riedle/nds/devkitpro/devkitarm/bin/../lib/gcc/arm-none-eabi/4.7.1/../../../../arm-none-eabi/lib/thumb\libg.a(lib_a-strtod.o)
 .rodata        0x020399f8      0x340 c:/users/riedle/nds/devkitpro/devkitarm/bin/../lib/gcc/arm-none-eabi/4.7.1/../../../../arm-none-eabi/lib/thumb\libg.a(lib_a-svfiscanf.o)
 .rodata        0x02039d38      0x184 c:/users/riedle/nds/devkitpro/devkitarm/bin/../lib/gcc/arm-none-eabi/4.7.1/../../../../arm-none-eabi/lib/thumb\libg.a(lib_a-svfprintf.o)
 .rodata        0x02039ebc       0xfc c:/users/riedle/nds/devkitpro/devkitarm/bin/../lib/gcc/arm-none-eabi/4.7.1/../../../../arm-none-eabi/lib/thumb\libg.a(lib_a-timelocal.o)
 .rodata        0x02039fb8      0x184 c:/users/riedle/nds/devkitpro/devkitarm/bin/../lib/gcc/arm-none-eabi/4.7.1/../../../../arm-none-eabi/lib/thumb\libg.a(lib_a-vfiprintf.o)
 .rodata        0x0203a13c      0x184 c:/users/riedle/nds/devkitpro/devkitarm/bin/../lib/gcc/arm-none-eabi/4.7.1/../../../../arm-none-eabi/lib/thumb\libg.a(lib_a-vfprintf.o)
 .rodata        0x0203a2c0      0x47c c:/users/riedle/nds/devkitpro/devkitarm/bin/../lib/gcc/arm-none-eabi/4.7.1/../../../../arm-none-eabi/lib/thumb\libg.a(lib_a-vfscanf.o)
 .rodata        0x0203a73c     0x34f0 c:/users/riedle/nds/devkitpro/devkitarm/bin/../lib/gcc/arm-none-eabi/4.7.1/../../../../arm-none-eabi/lib/thumb\libg.a(lib_a-jp2uc.o)
 *fill*         0x0203dc2c        0x4 ff
 .rodata        0x0203dc30      0x128 c:/users/riedle/nds/devkitpro/devkitarm/bin/../lib/gcc/arm-none-eabi/4.7.1/../../../../arm-none-eabi/lib/thumb\libg.a(lib_a-mprec.o)
                0x0203dc40                __mprec_tens
                0x0203dd08                __mprec_tinytens
                0x0203dd30                __mprec_bigtens
 .rodata        0x0203dd58      0x184 c:/users/riedle/nds/devkitpro/devkitarm/bin/../lib/gcc/arm-none-eabi/4.7.1/../../../../arm-none-eabi/lib/thumb\libg.a(lib_a-svfiprintf.o)
 .rodata        0x0203dedc       0x64 c:/users/riedle/nds/devkitpro/devkitarm/bin/../lib/gcc/arm-none-eabi/4.7.1/../../../../arm-none-eabi/lib/thumb\libsysbase.a(iosupport.o)
                0x0203dedc                dotab_stdnull
 *all.rodata*(*)
 *(.roda)
 *(.rodata.*)
 .rodata.str1.4
                0x0203df40       0x6b main.o
                                 0x70 (size before relaxing)
 *fill*         0x0203dfab        0x1 ff
 .rodata.str1.4
                0x0203dfac        0x2 lapi.o
                                  0x8 (size before relaxing)
 *fill*         0x0203dfae        0x2 ff
 .rodata.str1.4
                0x0203dfb0      0x2d2 lauxlib.o
                                0x2f8 (size before relaxing)
 *fill*         0x0203e282        0x2 ff
 .rodata.str1.4
                0x0203e284      0x298 lbaselib.o
                                0x2c8 (size before relaxing)
 .rodata.str1.4
                0x0203e51c       0xb3 lbitlib.o
                                 0xb4 (size before relaxing)
 *fill*         0x0203e5cf        0x1 ff
 .rodata.str1.4
                0x0203e5d0       0x53 lcode.o
                                 0x54 (size before relaxing)
 *fill*         0x0203e623        0x1 ff
 .rodata.str1.4
                0x0203e624       0xb2 lcorolib.o
                                 0xbc (size before relaxing)
 *fill*         0x0203e6d6        0x2 ff
 .rodata.str1.4
                0x0203e6d8      0x22e ldblib.o
                                0x294 (size before relaxing)
 *fill*         0x0203e906        0x2 ff
 .rodata.str1.4
                0x0203e908      0x13c ldebug.o
                                0x14c (size before relaxing)
 .rodata.str1.4
                0x0203ea44       0xee ldo.o
                                0x128 (size before relaxing)
 *fill*         0x0203eb32        0x2 ff
 .rodata.str1.4
                0x0203eb34       0x2a lgc.o
                                 0x2c (size before relaxing)
 *fill*         0x0203eb5e        0x2 ff
 .rodata.str1.4
                0x0203eb60       0x31 linit.o
                                 0x54 (size before relaxing)
 *fill*         0x0203eb91        0x3 ff
 .rodata.str1.4
                0x0203eb94      0x1ec liolib.o
                                0x264 (size before relaxing)
 .rodata.str1.4
                0x0203ed80      0x1d5 llex.o
                                0x224 (size before relaxing)
 *fill*         0x0203ef55        0x3 ff
 .rodata.str1.4
                0x0203ef58       0xec lmathlib.o
 .rodata.str1.4
                0x0203f044       0x42 lmem.o
                                 0x44 (size before relaxing)
 *fill*         0x0203f086        0x2 ff
 .rodata.str1.4
                0x0203f088      0x2cc loadlib.o
                                0x2f4 (size before relaxing)
 .rodata.str1.4
                0x0203f354       0x4f lobject.o
                                 0x58 (size before relaxing)
 *fill*         0x0203f3a3        0x1 ff
 .rodata.str1.4
                0x0203f3a4      0x131 lopcodes.o
                                0x13c (size before relaxing)
 *fill*         0x0203f4d5        0x3 ff
 .rodata.str1.4
                0x0203f4d8      0x138 loslib.o
                                0x154 (size before relaxing)
 .rodata.str1.4
                0x0203f610      0x267 lparser.o
                                0x284 (size before relaxing)
 *fill*         0x0203f877        0x1 ff
 .rodata.str1.4
                0x0203f878       0x12 lstate.o
                                 0x14 (size before relaxing)
 *fill*         0x0203f88a        0x2 ff
 .rodata.str1.4
                0x0203f88c      0x32a lstrlib.o
                                0x344 (size before relaxing)
 *fill*         0x0203fbb6        0x2 ff
 .rodata.str1.4
                0x0203fbb8       0x3b ltable.o
                                 0x3c (size before relaxing)
 *fill*         0x0203fbf3        0x1 ff
 .rodata.str1.4
                0x0203fbf4       0xbd ltablib.o
                                 0xd8 (size before relaxing)
 *fill*         0x0203fcb1        0x3 ff
 .rodata.str1.4
                0x0203fcb4       0x9f ltm.o
                                 0xe4 (size before relaxing)
 *fill*         0x0203fd53        0x1 ff
 .rodata.str1.4
                0x0203fd54       0x7d lundump.o
                                 0x80 (size before relaxing)
 *fill*         0x0203fdd1        0x3 ff
 .rodata.str1.4
                0x0203fdd4       0xb4 lvm.o
                                 0xc4 (size before relaxing)
 .rodata.str1.4
                0x0203fe88       0x49 c:/Users/riedle/NDS/DEVKITPRO/libnds/lib\libnds9.a(console.o)
                                 0x4c (size before relaxing)
 *fill*         0x0203fed1        0x3 ff
 .rodata._ZL28read_encoded_value_with_basehjPKhPj
                0x0203fed4       0x34 c:/users/riedle/nds/devkitpro/devkitarm/bin/../lib/gcc/arm-none-eabi/4.7.1/../../../../arm-none-eabi/lib/thumb\libstdc++.a(eh_personality.o)
 .rodata._ZTVN10__cxxabiv115__forced_unwindE
                0x0203ff08       0x18 c:/users/riedle/nds/devkitpro/devkitarm/bin/../lib/gcc/arm-none-eabi/4.7.1/../../../../arm-none-eabi/lib/thumb\libstdc++.a(eh_exception.o)
                0x0203ff08                vtable for __cxxabiv1::__forced_unwind
 .rodata._ZTVSt9exception
                0x0203ff20       0x18 c:/users/riedle/nds/devkitpro/devkitarm/bin/../lib/gcc/arm-none-eabi/4.7.1/../../../../arm-none-eabi/lib/thumb\libstdc++.a(eh_exception.o)
                0x0203ff20                vtable for std::exception
 .rodata._ZTIN10__cxxabiv115__forced_unwindE
                0x0203ff38        0x8 c:/users/riedle/nds/devkitpro/devkitarm/bin/../lib/gcc/arm-none-eabi/4.7.1/../../../../arm-none-eabi/lib/thumb\libstdc++.a(eh_exception.o)
                0x0203ff38                typeinfo for __cxxabiv1::__forced_unwind
 .rodata._ZTISt9exception
                0x0203ff40        0x8 c:/users/riedle/nds/devkitpro/devkitarm/bin/../lib/gcc/arm-none-eabi/4.7.1/../../../../arm-none-eabi/lib/thumb\libstdc++.a(eh_exception.o)
                0x0203ff40                typeinfo for std::exception
 .rodata._ZTSSt13bad_exception
                0x0203ff48       0x14 c:/users/riedle/nds/devkitpro/devkitarm/bin/../lib/gcc/arm-none-eabi/4.7.1/../../../../arm-none-eabi/lib/thumb\libstdc++.a(eh_exception.o)
                0x0203ff48                typeinfo name for std::bad_exception
 .rodata.str1.4
                0x0203ff5c       0x23 c:/users/riedle/nds/devkitpro/devkitarm/bin/../lib/gcc/arm-none-eabi/4.7.1/../../../../arm-none-eabi/lib/thumb\libstdc++.a(eh_exception.o)
                                 0x24 (size before relaxing)
 *fill*         0x0203ff7f        0x1 ff
 .rodata._ZTSN10__cxxabiv119__foreign_exceptionE
                0x0203ff80       0x24 c:/users/riedle/nds/devkitpro/devkitarm/bin/../lib/gcc/arm-none-eabi/4.7.1/../../../../arm-none-eabi/lib/thumb\libstdc++.a(eh_exception.o)
                0x0203ff80                typeinfo name for __cxxabiv1::__foreign_exception
 .rodata._ZTIN10__cxxabiv119__foreign_exceptionE
                0x0203ffa4        0x8 c:/users/riedle/nds/devkitpro/devkitarm/bin/../lib/gcc/arm-none-eabi/4.7.1/../../../../arm-none-eabi/lib/thumb\libstdc++.a(eh_exception.o)
                0x0203ffa4                typeinfo for __cxxabiv1::__foreign_exception
 *fill*         0x0203ffac        0x4 ff
 .rodata._ZTVSt13bad_exception
                0x0203ffb0       0x18 c:/users/riedle/nds/devkitpro/devkitarm/bin/../lib/gcc/arm-none-eabi/4.7.1/../../../../arm-none-eabi/lib/thumb\libstdc++.a(eh_exception.o)
                0x0203ffb0                vtable for std::bad_exception
 .rodata._ZTSSt9exception
                0x0203ffc8       0x10 c:/users/riedle/nds/devkitpro/devkitarm/bin/../lib/gcc/arm-none-eabi/4.7.1/../../../../arm-none-eabi/lib/thumb\libstdc++.a(eh_exception.o)
                0x0203ffc8                typeinfo name for std::exception
 .rodata._ZTVN10__cxxabiv119__foreign_exceptionE
                0x0203ffd8       0x18 c:/users/riedle/nds/devkitpro/devkitarm/bin/../lib/gcc/arm-none-eabi/4.7.1/../../../../arm-none-eabi/lib/thumb\libstdc++.a(eh_exception.o)
                0x0203ffd8                vtable for __cxxabiv1::__foreign_exception
 .rodata._ZTSN10__cxxabiv115__forced_unwindE
                0x0203fff0       0x20 c:/users/riedle/nds/devkitpro/devkitarm/bin/../lib/gcc/arm-none-eabi/4.7.1/../../../../arm-none-eabi/lib/thumb\libstdc++.a(eh_exception.o)
                0x0203fff0                typeinfo name for __cxxabiv1::__forced_unwind
 .rodata._ZTISt13bad_exception
                0x02040010        0xc c:/users/riedle/nds/devkitpro/devkitarm/bin/../lib/gcc/arm-none-eabi/4.7.1/../../../../arm-none-eabi/lib/thumb\libstdc++.a(eh_exception.o)
                0x02040010                typeinfo for std::bad_exception
 *fill*         0x0204001c        0x4 ff
 .rodata._ZTVSt9bad_alloc
                0x02040020       0x18 c:/users/riedle/nds/devkitpro/devkitarm/bin/../lib/gcc/arm-none-eabi/4.7.1/../../../../arm-none-eabi/lib/thumb\libstdc++.a(bad_alloc.o)
                0x02040020                vtable for std::bad_alloc
 .rodata._ZTISt9bad_alloc
                0x02040038        0xc c:/users/riedle/nds/devkitpro/devkitarm/bin/../lib/gcc/arm-none-eabi/4.7.1/../../../../arm-none-eabi/lib/thumb\libstdc++.a(bad_alloc.o)
                0x02040038                typeinfo for std::bad_alloc
 .rodata.str1.4
                0x02040044        0xf c:/users/riedle/nds/devkitpro/devkitarm/bin/../lib/gcc/arm-none-eabi/4.7.1/../../../../arm-none-eabi/lib/thumb\libstdc++.a(bad_alloc.o)
                                 0x10 (size before relaxing)
 *fill*         0x02040053        0x1 ff
 .rodata._ZTSSt9bad_alloc
                0x02040054       0x10 c:/users/riedle/nds/devkitpro/devkitarm/bin/../lib/gcc/arm-none-eabi/4.7.1/../../../../arm-none-eabi/lib/thumb\libstdc++.a(bad_alloc.o)
                0x02040054                typeinfo name for std::bad_alloc
 *fill*         0x02040064        0x4 ff
 .rodata._ZTVN10__cxxabiv117__class_type_infoE
                0x02040068       0x30 c:/users/riedle/nds/devkitpro/devkitarm/bin/../lib/gcc/arm-none-eabi/4.7.1/../../../../arm-none-eabi/lib/thumb\libstdc++.a(class_type_info.o)
                0x02040068                vtable for __cxxabiv1::__class_type_info
 .rodata._ZTIN10__cxxabiv117__class_type_infoE
                0x02040098        0xc c:/users/riedle/nds/devkitpro/devkitarm/bin/../lib/gcc/arm-none-eabi/4.7.1/../../../../arm-none-eabi/lib/thumb\libstdc++.a(class_type_info.o)
                0x02040098                typeinfo for __cxxabiv1::__class_type_info
 .rodata._ZTSN10__cxxabiv117__class_type_infoE
                0x020400a4       0x24 c:/users/riedle/nds/devkitpro/devkitarm/bin/../lib/gcc/arm-none-eabi/4.7.1/../../../../arm-none-eabi/lib/thumb\libstdc++.a(class_type_info.o)
                0x020400a4                typeinfo name for __cxxabiv1::__class_type_info
 .rodata._ZSt7nothrow
                0x020400c8        0x4 c:/users/riedle/nds/devkitpro/devkitarm/bin/../lib/gcc/arm-none-eabi/4.7.1/../../../../arm-none-eabi/lib/thumb\libstdc++.a(new_handler.o)
                0x020400c8                std::nothrow
 .rodata.str1.4
                0x020400cc       0x3b c:/users/riedle/nds/devkitpro/devkitarm/bin/../lib/gcc/arm-none-eabi/4.7.1/../../../../arm-none-eabi/lib/thumb\libstdc++.a(pure.o)
                                 0x3c (size before relaxing)
 *fill*         0x02040107        0x1 ff
 .rodata._ZTVN10__cxxabiv120__si_class_type_infoE
                0x02040108       0x30 c:/users/riedle/nds/devkitpro/devkitarm/bin/../lib/gcc/arm-none-eabi/4.7.1/../../../../arm-none-eabi/lib/thumb\libstdc++.a(si_class_type_info.o)
                0x02040108                vtable for __cxxabiv1::__si_class_type_info
 .rodata._ZTIN10__cxxabiv120__si_class_type_infoE
                0x02040138        0xc c:/users/riedle/nds/devkitpro/devkitarm/bin/../lib/gcc/arm-none-eabi/4.7.1/../../../../arm-none-eabi/lib/thumb\libstdc++.a(si_class_type_info.o)
                0x02040138                typeinfo for __cxxabiv1::__si_class_type_info
 .rodata._ZTSN10__cxxabiv120__si_class_type_infoE
                0x02040144       0x28 c:/users/riedle/nds/devkitpro/devkitarm/bin/../lib/gcc/arm-none-eabi/4.7.1/../../../../arm-none-eabi/lib/thumb\libstdc++.a(si_class_type_info.o)
                0x02040144                typeinfo name for __cxxabiv1::__si_class_type_info
 .rodata._ZTISt9type_info
                0x0204016c        0x8 c:/users/riedle/nds/devkitpro/devkitarm/bin/../lib/gcc/arm-none-eabi/4.7.1/../../../../arm-none-eabi/lib/thumb\libstdc++.a(tinfo.o)
                0x0204016c                typeinfo for std::type_info
 .rodata._ZTSSt9type_info
                0x02040174       0x10 c:/users/riedle/nds/devkitpro/devkitarm/bin/../lib/gcc/arm-none-eabi/4.7.1/../../../../arm-none-eabi/lib/thumb\libstdc++.a(tinfo.o)
                0x02040174                typeinfo name for std::type_info
 *fill*         0x02040184        0x4 ff
 .rodata._ZTVSt9type_info
                0x02040188       0x20 c:/users/riedle/nds/devkitpro/devkitarm/bin/../lib/gcc/arm-none-eabi/4.7.1/../../../../arm-none-eabi/lib/thumb\libstdc++.a(tinfo.o)
                0x02040188                vtable for std::type_info
 .rodata.str1.4
                0x020401a8       0x94 c:/users/riedle/nds/devkitpro/devkitarm/bin/../lib/gcc/arm-none-eabi/4.7.1/../../../../arm-none-eabi/lib/thumb\libstdc++.a(vterminate.o)
 .rodata.str1.4
                0x0204023c      0x6e3 c:/users/riedle/nds/devkitpro/devkitarm/bin/../lib/gcc/arm-none-eabi/4.7.1/../../../../arm-none-eabi/lib/thumb\libstdc++.a(cp-demangle.o)
                                0x7b4 (size before relaxing)
 .rodata.str1.4
                0x00000000        0xc c:/users/riedle/nds/devkitpro/devkitarm/bin/../lib/gcc/arm-none-eabi/4.7.1/../../../../arm-none-eabi/lib/thumb\libm.a(lib_a-w_acos.o)
 .rodata.str1.4
                0x00000000        0xc c:/users/riedle/nds/devkitpro/devkitarm/bin/../lib/gcc/arm-none-eabi/4.7.1/../../../../arm-none-eabi/lib/thumb\libm.a(lib_a-w_asin.o)
 .rodata.str1.4
                0x00000000        0x8 c:/users/riedle/nds/devkitpro/devkitarm/bin/../lib/gcc/arm-none-eabi/4.7.1/../../../../arm-none-eabi/lib/thumb\libm.a(lib_a-w_cosh.o)
 .rodata.str1.4
                0x00000000        0x4 c:/users/riedle/nds/devkitpro/devkitarm/bin/../lib/gcc/arm-none-eabi/4.7.1/../../../../arm-none-eabi/lib/thumb\libm.a(lib_a-w_exp.o)
 .rodata.str1.4
                0x00000000        0x8 c:/users/riedle/nds/devkitpro/devkitarm/bin/../lib/gcc/arm-none-eabi/4.7.1/../../../../arm-none-eabi/lib/thumb\libm.a(lib_a-w_fmod.o)
 *fill*         0x0204091f        0x1 ff
 .rodata.str1.4
                0x02040920        0x6 c:/users/riedle/nds/devkitpro/devkitarm/bin/../lib/gcc/arm-none-eabi/4.7.1/../../../../arm-none-eabi/lib/thumb\libm.a(lib_a-w_log10.o)
                                  0xc (size before relaxing)
 .rodata.str1.4
                0x00000000        0x8 c:/users/riedle/nds/devkitpro/devkitarm/bin/../lib/gcc/arm-none-eabi/4.7.1/../../../../arm-none-eabi/lib/thumb\libm.a(lib_a-w_log.o)
 .rodata.str1.4
                0x00000000        0x4 c:/users/riedle/nds/devkitpro/devkitarm/bin/../lib/gcc/arm-none-eabi/4.7.1/../../../../arm-none-eabi/lib/thumb\libm.a(lib_a-w_pow.o)
 .rodata.str1.4
                0x00000000        0x8 c:/users/riedle/nds/devkitpro/devkitarm/bin/../lib/gcc/arm-none-eabi/4.7.1/../../../../arm-none-eabi/lib/thumb\libm.a(lib_a-w_sinh.o)
 .rodata.str1.4
                0x00000000        0x8 c:/users/riedle/nds/devkitpro/devkitarm/bin/../lib/gcc/arm-none-eabi/4.7.1/../../../../arm-none-eabi/lib/thumb\libm.a(lib_a-w_sqrt.o)
 .rodata.str1.4
                0x00000000        0x4 c:/users/riedle/nds/devkitpro/devkitarm/bin/../lib/gcc/arm-none-eabi/4.7.1/../../../../arm-none-eabi/lib/thumb\libm.a(lib_a-e_pow.o)
 .rodata.str1.4
                0x00000000        0x4 c:/users/riedle/nds/devkitpro/devkitarm/bin/../lib/gcc/arm-none-eabi/4.7.1/../../../../arm-none-eabi/lib/thumb\libg.a(lib_a-impure.o)
 *fill*         0x02040926        0x2 ff
 .rodata.str1.4
                0x02040928      0x120 c:/users/riedle/nds/devkitpro/devkitarm/bin/../lib/gcc/arm-none-eabi/4.7.1/../../../../arm-none-eabi/lib/thumb\libg.a(lib_a-locale.o)
                                0x130 (size before relaxing)
 .rodata.str1.4
                0x02040a48      0x635 c:/users/riedle/nds/devkitpro/devkitarm/bin/../lib/gcc/arm-none-eabi/4.7.1/../../../../arm-none-eabi/lib/thumb\libg.a(lib_a-strerror.o)
                                0x63c (size before relaxing)
 *fill*         0x0204107d        0x3 ff
 .rodata.str1.4
                0x02041080       0x6c c:/users/riedle/nds/devkitpro/devkitarm/bin/../lib/gcc/arm-none-eabi/4.7.1/../../../../arm-none-eabi/lib/thumb\libg.a(lib_a-strftime.o)
                                 0x78 (size before relaxing)
 .rodata.str1.4
                0x020410ec        0xa c:/users/riedle/nds/devkitpro/devkitarm/bin/../lib/gcc/arm-none-eabi/4.7.1/../../../../arm-none-eabi/lib/thumb\libg.a(lib_a-strtod.o)
                                 0x10 (size before relaxing)
 *fill*         0x020410f6        0x2 ff
 .rodata.str1.4
                0x020410f8       0x35 c:/users/riedle/nds/devkitpro/devkitarm/bin/../lib/gcc/arm-none-eabi/4.7.1/../../../../arm-none-eabi/lib/thumb\libg.a(lib_a-svfprintf.o)
                                 0x44 (size before relaxing)
 *fill*         0x0204112d        0x3 ff
 .rodata.str1.4
                0x02041130      0x158 c:/users/riedle/nds/devkitpro/devkitarm/bin/../lib/gcc/arm-none-eabi/4.7.1/../../../../arm-none-eabi/lib/thumb\libg.a(lib_a-timelocal.o)
                                0x164 (size before relaxing)
 .rodata.str1.4
                0x02041288        0x4 c:/users/riedle/nds/devkitpro/devkitarm/bin/../lib/gcc/arm-none-eabi/4.7.1/../../../../arm-none-eabi/lib/thumb\libg.a(lib_a-tmpfile.o)
 .rodata.str1.4
                0x0204128c       0x1b c:/users/riedle/nds/devkitpro/devkitarm/bin/../lib/gcc/arm-none-eabi/4.7.1/../../../../arm-none-eabi/lib/thumb\libg.a(lib_a-tmpnam.o)
                                 0x24 (size before relaxing)
 *fill*         0x020412a7        0x1 ff
 .rodata.str1.4
                0x020412a8        0x4 c:/users/riedle/nds/devkitpro/devkitarm/bin/../lib/gcc/arm-none-eabi/4.7.1/../../../../arm-none-eabi/lib/thumb\libg.a(lib_a-tzvars.o)
 .rodata.str1.4
                0x00000000       0x30 c:/users/riedle/nds/devkitpro/devkitarm/bin/../lib/gcc/arm-none-eabi/4.7.1/../../../../arm-none-eabi/lib/thumb\libg.a(lib_a-vfiprintf.o)
 .rodata.str1.4
                0x00000000       0x44 c:/users/riedle/nds/devkitpro/devkitarm/bin/../lib/gcc/arm-none-eabi/4.7.1/../../../../arm-none-eabi/lib/thumb\libg.a(lib_a-vfprintf.o)
 .rodata.str1.4
                0x020412ac        0x5 c:/users/riedle/nds/devkitpro/devkitarm/bin/../lib/gcc/arm-none-eabi/4.7.1/../../../../arm-none-eabi/lib/thumb\libg.a(lib_a-vfscanf.o)
                                  0x8 (size before relaxing)
 *fill*         0x020412b1        0x3 ff
 .rodata.str1.4
                0x020412b4       0x10 c:/users/riedle/nds/devkitpro/devkitarm/bin/../lib/gcc/arm-none-eabi/4.7.1/../../../../arm-none-eabi/lib/thumb\libg.a(lib_a-dtoa.o)
                                 0x14 (size before relaxing)
 .rodata.str1.4
                0x020412c4       0x1b c:/users/riedle/nds/devkitpro/devkitarm/bin/../lib/gcc/arm-none-eabi/4.7.1/../../../../arm-none-eabi/lib/thumb\libg.a(lib_a-gdtoa-gethex.o)
                                 0x1c (size before relaxing)
 .rodata.str1.4
                0x00000000       0x14 c:/users/riedle/nds/devkitpro/devkitarm/bin/../lib/gcc/arm-none-eabi/4.7.1/../../../../arm-none-eabi/lib/thumb\libg.a(lib_a-jp2uc.o)
 .rodata.str1.4
                0x00000000       0x10 c:/users/riedle/nds/devkitpro/devkitarm/bin/../lib/gcc/arm-none-eabi/4.7.1/../../../../arm-none-eabi/lib/thumb\libg.a(lib_a-ldpart.o)
 .rodata.str1.4
                0x00000000        0x4 c:/users/riedle/nds/devkitpro/devkitarm/bin/../lib/gcc/arm-none-eabi/4.7.1/../../../../arm-none-eabi/lib/thumb\libg.a(lib_a-mbrtowc.o)
 .rodata.str1.4
                0x00000000       0x30 c:/users/riedle/nds/devkitpro/devkitarm/bin/../lib/gcc/arm-none-eabi/4.7.1/../../../../arm-none-eabi/lib/thumb\libg.a(lib_a-svfiprintf.o)
 *fill*         0x020412df        0x1 ff
 .rodata.str1.4
                0x020412e0        0x8 c:/users/riedle/nds/devkitpro/devkitarm/bin/../lib/gcc/arm-none-eabi/4.7.1/../../../../arm-none-eabi/lib/thumb\libsysbase.a(iosupport.o)
 *(.gnu.linkonce.r*)
                0x020412e8                . = ALIGN (0x4)

.ARM.extab      0x020412e8      0x158
 *(.ARM.extab* .gnu.linkonce.armextab.*)
 .ARM.extab.text._Znwj
                0x020412e8       0x20 c:/users/riedle/nds/devkitpro/devkitarm/bin/../lib/gcc/arm-none-eabi/4.7.1/../../../../arm-none-eabi/lib/thumb\libstdc++.a(new_op.o)
 .ARM.extab.text._ZN10__cxxabiv1L24__is_gxx_exception_classEPc
                0x02041308        0x0 c:/users/riedle/nds/devkitpro/devkitarm/bin/../lib/gcc/arm-none-eabi/4.7.1/../../../../arm-none-eabi/lib/thumb\libstdc++.a(eh_call.o)
 .ARM.extab.text.__cxa_call_terminate
                0x02041308        0x0 c:/users/riedle/nds/devkitpro/devkitarm/bin/../lib/gcc/arm-none-eabi/4.7.1/../../../../arm-none-eabi/lib/thumb\libstdc++.a(eh_call.o)
 .ARM.extab.text.__cxa_call_unexpected
                0x02041308       0x30 c:/users/riedle/nds/devkitpro/devkitarm/bin/../lib/gcc/arm-none-eabi/4.7.1/../../../../arm-none-eabi/lib/thumb\libstdc++.a(eh_call.o)
 .ARM.extab.text._ZL12read_sleb128PKhPl
                0x02041338        0x0 c:/users/riedle/nds/devkitpro/devkitarm/bin/../lib/gcc/arm-none-eabi/4.7.1/../../../../arm-none-eabi/lib/thumb\libstdc++.a(eh_personality.o)
 .ARM.extab.text._ZL28read_encoded_value_with_basehjPKhPj
                0x02041338        0xc c:/users/riedle/nds/devkitpro/devkitarm/bin/../lib/gcc/arm-none-eabi/4.7.1/../../../../arm-none-eabi/lib/thumb\libstdc++.a(eh_personality.o)
 .ARM.extab.text._ZL21base_of_encoded_valuehP15_Unwind_Context
                0x02041344        0xc c:/users/riedle/nds/devkitpro/devkitarm/bin/../lib/gcc/arm-none-eabi/4.7.1/../../../../arm-none-eabi/lib/thumb\libstdc++.a(eh_personality.o)
 .ARM.extab.text._ZL17parse_lsda_headerP15_Unwind_ContextPKhP16lsda_header_info
                0x02041350        0x0 c:/users/riedle/nds/devkitpro/devkitarm/bin/../lib/gcc/arm-none-eabi/4.7.1/../../../../arm-none-eabi/lib/thumb\libstdc++.a(eh_personality.o)
 .ARM.extab.text.__gxx_personality_v0
                0x02041350       0x24 c:/users/riedle/nds/devkitpro/devkitarm/bin/../lib/gcc/arm-none-eabi/4.7.1/../../../../arm-none-eabi/lib/thumb\libstdc++.a(eh_personality.o)
 .ARM.extab.text._ZdlPv
                0x02041374        0x0 c:/users/riedle/nds/devkitpro/devkitarm/bin/../lib/gcc/arm-none-eabi/4.7.1/../../../../arm-none-eabi/lib/thumb\libstdc++.a(del_op.o)
 .ARM.extab.text._ZN10__cxxabiv111__terminateEPFvvE
                0x02041374       0x28 c:/users/riedle/nds/devkitpro/devkitarm/bin/../lib/gcc/arm-none-eabi/4.7.1/../../../../arm-none-eabi/lib/thumb\libstdc++.a(eh_terminate.o)
 .ARM.extab.text._ZSt9terminatev
                0x0204139c        0x0 c:/users/riedle/nds/devkitpro/devkitarm/bin/../lib/gcc/arm-none-eabi/4.7.1/../../../../arm-none-eabi/lib/thumb\libstdc++.a(eh_terminate.o)
 .ARM.extab.text._ZN10__cxxabiv112__unexpectedEPFvvE
                0x0204139c        0xc c:/users/riedle/nds/devkitpro/devkitarm/bin/../lib/gcc/arm-none-eabi/4.7.1/../../../../arm-none-eabi/lib/thumb\libstdc++.a(eh_terminate.o)
 .ARM.extab.text._ZSt10unexpectedv
                0x020413a8        0xc c:/users/riedle/nds/devkitpro/devkitarm/bin/../lib/gcc/arm-none-eabi/4.7.1/../../../../arm-none-eabi/lib/thumb\libstdc++.a(eh_terminate.o)
 .ARM.extab.text._ZSt13set_terminatePFvvE
                0x020413b4        0x0 c:/users/riedle/nds/devkitpro/devkitarm/bin/../lib/gcc/arm-none-eabi/4.7.1/../../../../arm-none-eabi/lib/thumb\libstdc++.a(eh_terminate.o)
 .ARM.extab.text._ZSt14set_unexpectedPFvvE
                0x020413b4        0x0 c:/users/riedle/nds/devkitpro/devkitarm/bin/../lib/gcc/arm-none-eabi/4.7.1/../../../../arm-none-eabi/lib/thumb\libstdc++.a(eh_terminate.o)
 .ARM.extab.text._ZNSt9exceptionD2Ev
                0x020413b4        0x0 c:/users/riedle/nds/devkitpro/devkitarm/bin/../lib/gcc/arm-none-eabi/4.7.1/../../../../arm-none-eabi/lib/thumb\libstdc++.a(eh_exception.o)
 .ARM.extab.text._ZNSt13bad_exceptionD2Ev
                0x020413b4        0x0 c:/users/riedle/nds/devkitpro/devkitarm/bin/../lib/gcc/arm-none-eabi/4.7.1/../../../../arm-none-eabi/lib/thumb\libstdc++.a(eh_exception.o)
 .ARM.extab.text._ZN10__cxxabiv115__forced_unwindD2Ev
                0x020413b4        0x0 c:/users/riedle/nds/devkitpro/devkitarm/bin/../lib/gcc/arm-none-eabi/4.7.1/../../../../arm-none-eabi/lib/thumb\libstdc++.a(eh_exception.o)
 .ARM.extab.text._ZN10__cxxabiv119__foreign_exceptionD2Ev
                0x020413b4        0x0 c:/users/riedle/nds/devkitpro/devkitarm/bin/../lib/gcc/arm-none-eabi/4.7.1/../../../../arm-none-eabi/lib/thumb\libstdc++.a(eh_exception.o)
 .ARM.extab.text._ZNKSt9exception4whatEv
                0x020413b4        0x0 c:/users/riedle/nds/devkitpro/devkitarm/bin/../lib/gcc/arm-none-eabi/4.7.1/../../../../arm-none-eabi/lib/thumb\libstdc++.a(eh_exception.o)
 .ARM.extab.text._ZNKSt13bad_exception4whatEv
                0x020413b4        0x0 c:/users/riedle/nds/devkitpro/devkitarm/bin/../lib/gcc/arm-none-eabi/4.7.1/../../../../arm-none-eabi/lib/thumb\libstdc++.a(eh_exception.o)
 .ARM.extab.text._ZN10__cxxabiv119__foreign_exceptionD0Ev
                0x020413b4        0x0 c:/users/riedle/nds/devkitpro/devkitarm/bin/../lib/gcc/arm-none-eabi/4.7.1/../../../../arm-none-eabi/lib/thumb\libstdc++.a(eh_exception.o)
 .ARM.extab.text._ZN10__cxxabiv115__forced_unwindD0Ev
                0x020413b4        0x0 c:/users/riedle/nds/devkitpro/devkitarm/bin/../lib/gcc/arm-none-eabi/4.7.1/../../../../arm-none-eabi/lib/thumb\libstdc++.a(eh_exception.o)
 .ARM.extab.text._ZNSt9exceptionD0Ev
                0x020413b4        0x0 c:/users/riedle/nds/devkitpro/devkitarm/bin/../lib/gcc/arm-none-eabi/4.7.1/../../../../arm-none-eabi/lib/thumb\libstdc++.a(eh_exception.o)
 .ARM.extab.text._ZNSt13bad_exceptionD0Ev
                0x020413b4        0x0 c:/users/riedle/nds/devkitpro/devkitarm/bin/../lib/gcc/arm-none-eabi/4.7.1/../../../../arm-none-eabi/lib/thumb\libstdc++.a(eh_exception.o)
 .ARM.extab.text.__cxa_allocate_exception
                0x020413b4        0x0 c:/users/riedle/nds/devkitpro/devkitarm/bin/../lib/gcc/arm-none-eabi/4.7.1/../../../../arm-none-eabi/lib/thumb\libstdc++.a(eh_alloc.o)
 .ARM.extab.text.__cxa_free_exception
                0x020413b4        0x0 c:/users/riedle/nds/devkitpro/devkitarm/bin/../lib/gcc/arm-none-eabi/4.7.1/../../../../arm-none-eabi/lib/thumb\libstdc++.a(eh_alloc.o)
 .ARM.extab.text.__cxa_allocate_dependent_exception
                0x020413b4        0x0 c:/users/riedle/nds/devkitpro/devkitarm/bin/../lib/gcc/arm-none-eabi/4.7.1/../../../../arm-none-eabi/lib/thumb\libstdc++.a(eh_alloc.o)
 .ARM.extab.text.__cxa_free_dependent_exception
                0x020413b4        0x0 c:/users/riedle/nds/devkitpro/devkitarm/bin/../lib/gcc/arm-none-eabi/4.7.1/../../../../arm-none-eabi/lib/thumb\libstdc++.a(eh_alloc.o)
 .ARM.extab.text._ZNKSt9bad_alloc4whatEv
                0x020413b4        0x0 c:/users/riedle/nds/devkitpro/devkitarm/bin/../lib/gcc/arm-none-eabi/4.7.1/../../../../arm-none-eabi/lib/thumb\libstdc++.a(bad_alloc.o)
 .ARM.extab.text._ZNSt9bad_allocD2Ev
                0x020413b4        0x0 c:/users/riedle/nds/devkitpro/devkitarm/bin/../lib/gcc/arm-none-eabi/4.7.1/../../../../arm-none-eabi/lib/thumb\libstdc++.a(bad_alloc.o)
 .ARM.extab.text._ZNSt9bad_allocD0Ev
                0x020413b4        0x0 c:/users/riedle/nds/devkitpro/devkitarm/bin/../lib/gcc/arm-none-eabi/4.7.1/../../../../arm-none-eabi/lib/thumb\libstdc++.a(bad_alloc.o)
 .ARM.extab.text._ZNK10__cxxabiv117__class_type_info11__do_upcastEPKS0_PPv
                0x020413b4        0x0 c:/users/riedle/nds/devkitpro/devkitarm/bin/../lib/gcc/arm-none-eabi/4.7.1/../../../../arm-none-eabi/lib/thumb\libstdc++.a(class_type_info.o)
 .ARM.extab.text._ZNK10__cxxabiv117__class_type_info20__do_find_public_srcEiPKvPKS0_S2_
                0x020413b4        0x0 c:/users/riedle/nds/devkitpro/devkitarm/bin/../lib/gcc/arm-none-eabi/4.7.1/../../../../arm-none-eabi/lib/thumb\libstdc++.a(class_type_info.o)
 .ARM.extab.text._ZNK10__cxxabiv117__class_type_info11__do_upcastEPKS0_PKvRNS0_15__upcast_resultE
                0x020413b4        0x0 c:/users/riedle/nds/devkitpro/devkitarm/bin/../lib/gcc/arm-none-eabi/4.7.1/../../../../arm-none-eabi/lib/thumb\libstdc++.a(class_type_info.o)
 .ARM.extab.text._ZN10__cxxabiv117__class_type_infoD2Ev
                0x020413b4        0x0 c:/users/riedle/nds/devkitpro/devkitarm/bin/../lib/gcc/arm-none-eabi/4.7.1/../../../../arm-none-eabi/lib/thumb\libstdc++.a(class_type_info.o)
 .ARM.extab.text._ZN10__cxxabiv117__class_type_infoD0Ev
                0x020413b4        0x0 c:/users/riedle/nds/devkitpro/devkitarm/bin/../lib/gcc/arm-none-eabi/4.7.1/../../../../arm-none-eabi/lib/thumb\libstdc++.a(class_type_info.o)
 .ARM.extab.text._ZNK10__cxxabiv117__class_type_info12__do_dyncastEiNS0_10__sub_kindEPKS0_PKvS3_S5_RNS0_16__dyncast_resultE
                0x020413b4        0x0 c:/users/riedle/nds/devkitpro/devkitarm/bin/../lib/gcc/arm-none-eabi/4.7.1/../../../../arm-none-eabi/lib/thumb\libstdc++.a(class_type_info.o)
 .ARM.extab.text._ZNK10__cxxabiv117__class_type_info10__do_catchEPKSt9type_infoPPvj
                0x020413b4        0x0 c:/users/riedle/nds/devkitpro/devkitarm/bin/../lib/gcc/arm-none-eabi/4.7.1/../../../../arm-none-eabi/lib/thumb\libstdc++.a(class_type_info.o)
 .ARM.extab.text._ZSt15set_new_handlerPFvvE
                0x020413b4        0x0 c:/users/riedle/nds/devkitpro/devkitarm/bin/../lib/gcc/arm-none-eabi/4.7.1/../../../../arm-none-eabi/lib/thumb\libstdc++.a(new_handler.o)
 .ARM.extab.text.__cxa_type_match
                0x020413b4        0xc c:/users/riedle/nds/devkitpro/devkitarm/bin/../lib/gcc/arm-none-eabi/4.7.1/../../../../arm-none-eabi/lib/thumb\libstdc++.a(eh_arm.o)
 .ARM.extab.text.__cxa_begin_cleanup
                0x020413c0        0x0 c:/users/riedle/nds/devkitpro/devkitarm/bin/../lib/gcc/arm-none-eabi/4.7.1/../../../../arm-none-eabi/lib/thumb\libstdc++.a(eh_arm.o)
 .ARM.extab.text.__gnu_end_cleanup
                0x020413c0        0x0 c:/users/riedle/nds/devkitpro/devkitarm/bin/../lib/gcc/arm-none-eabi/4.7.1/../../../../arm-none-eabi/lib/thumb\libstdc++.a(eh_arm.o)
 .ARM.extab.text._ZL23__gxx_exception_cleanup19_Unwind_Reason_CodeP21_Unwind_Control_Block
                0x020413c0        0x0 c:/users/riedle/nds/devkitpro/devkitarm/bin/../lib/gcc/arm-none-eabi/4.7.1/../../../../arm-none-eabi/lib/thumb\libstdc++.a(eh_throw.o)
 .ARM.extab.text.__cxa_throw
                0x020413c0        0x0 c:/users/riedle/nds/devkitpro/devkitarm/bin/../lib/gcc/arm-none-eabi/4.7.1/../../../../arm-none-eabi/lib/thumb\libstdc++.a(eh_throw.o)
 .ARM.extab.text.__cxa_rethrow
                0x020413c0        0x0 c:/users/riedle/nds/devkitpro/devkitarm/bin/../lib/gcc/arm-none-eabi/4.7.1/../../../../arm-none-eabi/lib/thumb\libstdc++.a(eh_throw.o)
 .ARM.extab.text.__cxa_pure_virtual
                0x020413c0        0xc c:/users/riedle/nds/devkitpro/devkitarm/bin/../lib/gcc/arm-none-eabi/4.7.1/../../../../arm-none-eabi/lib/thumb\libstdc++.a(pure.o)
 .ARM.extab.text.__cxa_deleted_virtual
                0x020413cc        0xc c:/users/riedle/nds/devkitpro/devkitarm/bin/../lib/gcc/arm-none-eabi/4.7.1/../../../../arm-none-eabi/lib/thumb\libstdc++.a(pure.o)
 .ARM.extab.text.__cxa_get_globals_fast
                0x020413d8        0x0 c:/users/riedle/nds/devkitpro/devkitarm/bin/../lib/gcc/arm-none-eabi/4.7.1/../../../../arm-none-eabi/lib/thumb\libstdc++.a(eh_globals.o)
 .ARM.extab.text.__cxa_get_globals
                0x020413d8        0x0 c:/users/riedle/nds/devkitpro/devkitarm/bin/../lib/gcc/arm-none-eabi/4.7.1/../../../../arm-none-eabi/lib/thumb\libstdc++.a(eh_globals.o)
 .ARM.extab.text.__cxa_get_exception_ptr
                0x020413d8        0x0 c:/users/riedle/nds/devkitpro/devkitarm/bin/../lib/gcc/arm-none-eabi/4.7.1/../../../../arm-none-eabi/lib/thumb\libstdc++.a(eh_catch.o)
 .ARM.extab.text.__cxa_begin_catch
                0x020413d8       0x1c c:/users/riedle/nds/devkitpro/devkitarm/bin/../lib/gcc/arm-none-eabi/4.7.1/../../../../arm-none-eabi/lib/thumb\libstdc++.a(eh_catch.o)
 .ARM.extab.text.__cxa_end_catch
                0x020413f4        0xc c:/users/riedle/nds/devkitpro/devkitarm/bin/../lib/gcc/arm-none-eabi/4.7.1/../../../../arm-none-eabi/lib/thumb\libstdc++.a(eh_catch.o)
 .ARM.extab.text._ZSt18uncaught_exceptionv
                0x02041400        0x0 c:/users/riedle/nds/devkitpro/devkitarm/bin/../lib/gcc/arm-none-eabi/4.7.1/../../../../arm-none-eabi/lib/thumb\libstdc++.a(eh_catch.o)
 .ARM.extab.text._ZNK10__cxxabiv120__si_class_type_info12__do_dyncastEiNS_17__class_type_info10__sub_kindEPKS1_PKvS4_S6_RNS1_16__dyncast_resultE
                0x02041400        0xc c:/users/riedle/nds/devkitpro/devkitarm/bin/../lib/gcc/arm-none-eabi/4.7.1/../../../../arm-none-eabi/lib/thumb\libstdc++.a(si_class_type_info.o)
 .ARM.extab.text._ZN10__cxxabiv120__si_class_type_infoD2Ev
                0x0204140c        0x0 c:/users/riedle/nds/devkitpro/devkitarm/bin/../lib/gcc/arm-none-eabi/4.7.1/../../../../arm-none-eabi/lib/thumb\libstdc++.a(si_class_type_info.o)
 .ARM.extab.text._ZN10__cxxabiv120__si_class_type_infoD0Ev
                0x0204140c        0x0 c:/users/riedle/nds/devkitpro/devkitarm/bin/../lib/gcc/arm-none-eabi/4.7.1/../../../../arm-none-eabi/lib/thumb\libstdc++.a(si_class_type_info.o)
 .ARM.extab.text._ZNK10__cxxabiv120__si_class_type_info11__do_upcastEPKNS_17__class_type_infoEPKvRNS1_15__upcast_resultE
                0x0204140c        0x0 c:/users/riedle/nds/devkitpro/devkitarm/bin/../lib/gcc/arm-none-eabi/4.7.1/../../../../arm-none-eabi/lib/thumb\libstdc++.a(si_class_type_info.o)
 .ARM.extab.text._ZNK10__cxxabiv120__si_class_type_info20__do_find_public_srcEiPKvPKNS_17__class_type_infoES2_
                0x0204140c        0x0 c:/users/riedle/nds/devkitpro/devkitarm/bin/../lib/gcc/arm-none-eabi/4.7.1/../../../../arm-none-eabi/lib/thumb\libstdc++.a(si_class_type_info.o)
 .ARM.extab.text._ZNSt9type_infoD2Ev
                0x0204140c        0x0 c:/users/riedle/nds/devkitpro/devkitarm/bin/../lib/gcc/arm-none-eabi/4.7.1/../../../../arm-none-eabi/lib/thumb\libstdc++.a(tinfo.o)
 .ARM.extab.text._ZNKSt9type_info14__is_pointer_pEv
                0x0204140c        0x0 c:/users/riedle/nds/devkitpro/devkitarm/bin/../lib/gcc/arm-none-eabi/4.7.1/../../../../arm-none-eabi/lib/thumb\libstdc++.a(tinfo.o)
 .ARM.extab.text._ZNKSt9type_info15__is_function_pEv
                0x0204140c        0x0 c:/users/riedle/nds/devkitpro/devkitarm/bin/../lib/gcc/arm-none-eabi/4.7.1/../../../../arm-none-eabi/lib/thumb\libstdc++.a(tinfo.o)
 .ARM.extab.text._ZNKSt9type_info11__do_upcastEPKN10__cxxabiv117__class_type_infoEPPv
                0x0204140c        0x0 c:/users/riedle/nds/devkitpro/devkitarm/bin/../lib/gcc/arm-none-eabi/4.7.1/../../../../arm-none-eabi/lib/thumb\libstdc++.a(tinfo.o)
 .ARM.extab.text._ZNSt9type_infoD0Ev
                0x0204140c        0x0 c:/users/riedle/nds/devkitpro/devkitarm/bin/../lib/gcc/arm-none-eabi/4.7.1/../../../../arm-none-eabi/lib/thumb\libstdc++.a(tinfo.o)
 .ARM.extab.text._ZNKSt9type_infoeqERKS_
                0x0204140c        0x0 c:/users/riedle/nds/devkitpro/devkitarm/bin/../lib/gcc/arm-none-eabi/4.7.1/../../../../arm-none-eabi/lib/thumb\libstdc++.a(tinfo.o)
 .ARM.extab.text._ZNKSt9type_info10__do_catchEPKS_PPvj
                0x0204140c        0x0 c:/users/riedle/nds/devkitpro/devkitarm/bin/../lib/gcc/arm-none-eabi/4.7.1/../../../../arm-none-eabi/lib/thumb\libstdc++.a(tinfo.o)
 .ARM.extab.text._ZN9__gnu_cxx27__verbose_terminate_handlerEv
                0x0204140c       0x34 c:/users/riedle/nds/devkitpro/devkitarm/bin/../lib/gcc/arm-none-eabi/4.7.1/../../../../arm-none-eabi/lib/thumb\libstdc++.a(vterminate.o)
 .ARM.extab.text.__cxa_current_exception_type
                0x02041440        0x0 c:/users/riedle/nds/devkitpro/devkitarm/bin/../lib/gcc/arm-none-eabi/4.7.1/../../../../arm-none-eabi/lib/thumb\libstdc++.a(eh_type.o)
                0x02041440                __exidx_start = .

ARM.exidx       0x02041440      0x138
 *(.ARM.exidx* .gnu.linkonce.armexidx.*)
 .ARM.exidx.text._Znwj
                0x02041440        0x8 c:/users/riedle/nds/devkitpro/devkitarm/bin/../lib/gcc/arm-none-eabi/4.7.1/../../../../arm-none-eabi/lib/thumb\libstdc++.a(new_op.o)
 .ARM.exidx.text._ZN10__cxxabiv1L24__is_gxx_exception_classEPc
                0x02041448        0x8 c:/users/riedle/nds/devkitpro/devkitarm/bin/../lib/gcc/arm-none-eabi/4.7.1/../../../../arm-none-eabi/lib/thumb\libstdc++.a(eh_call.o)
 .ARM.exidx.text.__cxa_call_terminate
                0x02041450        0x0 c:/users/riedle/nds/devkitpro/devkitarm/bin/../lib/gcc/arm-none-eabi/4.7.1/../../../../arm-none-eabi/lib/thumb\libstdc++.a(eh_call.o)
                                  0x8 (size before relaxing)
 .ARM.exidx.text.__cxa_call_unexpected
                0x02041450        0x8 c:/users/riedle/nds/devkitpro/devkitarm/bin/../lib/gcc/arm-none-eabi/4.7.1/../../../../arm-none-eabi/lib/thumb\libstdc++.a(eh_call.o)
 .ARM.exidx.text._ZL12read_sleb128PKhPl
                0x02041458        0x8 c:/users/riedle/nds/devkitpro/devkitarm/bin/../lib/gcc/arm-none-eabi/4.7.1/../../../../arm-none-eabi/lib/thumb\libstdc++.a(eh_personality.o)
 .ARM.exidx.text._ZL28read_encoded_value_with_basehjPKhPj
                0x02041460        0x8 c:/users/riedle/nds/devkitpro/devkitarm/bin/../lib/gcc/arm-none-eabi/4.7.1/../../../../arm-none-eabi/lib/thumb\libstdc++.a(eh_personality.o)
 .ARM.exidx.text._ZL21base_of_encoded_valuehP15_Unwind_Context
                0x02041468        0x8 c:/users/riedle/nds/devkitpro/devkitarm/bin/../lib/gcc/arm-none-eabi/4.7.1/../../../../arm-none-eabi/lib/thumb\libstdc++.a(eh_personality.o)
 .ARM.exidx.text._ZL17parse_lsda_headerP15_Unwind_ContextPKhP16lsda_header_info
                0x02041470        0x8 c:/users/riedle/nds/devkitpro/devkitarm/bin/../lib/gcc/arm-none-eabi/4.7.1/../../../../arm-none-eabi/lib/thumb\libstdc++.a(eh_personality.o)
 .ARM.exidx.text.__gxx_personality_v0
                0x02041478        0x8 c:/users/riedle/nds/devkitpro/devkitarm/bin/../lib/gcc/arm-none-eabi/4.7.1/../../../../arm-none-eabi/lib/thumb\libstdc++.a(eh_personality.o)
 .ARM.exidx.text._ZdlPv
                0x02041480        0x8 c:/users/riedle/nds/devkitpro/devkitarm/bin/../lib/gcc/arm-none-eabi/4.7.1/../../../../arm-none-eabi/lib/thumb\libstdc++.a(del_op.o)
 .ARM.exidx.text._ZN10__cxxabiv111__terminateEPFvvE
                0x02041488        0x8 c:/users/riedle/nds/devkitpro/devkitarm/bin/../lib/gcc/arm-none-eabi/4.7.1/../../../../arm-none-eabi/lib/thumb\libstdc++.a(eh_terminate.o)
 .ARM.exidx.text._ZSt9terminatev
                0x02041490        0x8 c:/users/riedle/nds/devkitpro/devkitarm/bin/../lib/gcc/arm-none-eabi/4.7.1/../../../../arm-none-eabi/lib/thumb\libstdc++.a(eh_terminate.o)
 .ARM.exidx.text._ZN10__cxxabiv112__unexpectedEPFvvE
                0x02041498        0x8 c:/users/riedle/nds/devkitpro/devkitarm/bin/../lib/gcc/arm-none-eabi/4.7.1/../../../../arm-none-eabi/lib/thumb\libstdc++.a(eh_terminate.o)
 .ARM.exidx.text._ZSt10unexpectedv
                0x020414a0        0x8 c:/users/riedle/nds/devkitpro/devkitarm/bin/../lib/gcc/arm-none-eabi/4.7.1/../../../../arm-none-eabi/lib/thumb\libstdc++.a(eh_terminate.o)
 .ARM.exidx.text._ZSt13set_terminatePFvvE
                0x020414a8        0x8 c:/users/riedle/nds/devkitpro/devkitarm/bin/../lib/gcc/arm-none-eabi/4.7.1/../../../../arm-none-eabi/lib/thumb\libstdc++.a(eh_terminate.o)
 .ARM.exidx.text._ZSt14set_unexpectedPFvvE
                0x020414b0        0x0 c:/users/riedle/nds/devkitpro/devkitarm/bin/../lib/gcc/arm-none-eabi/4.7.1/../../../../arm-none-eabi/lib/thumb\libstdc++.a(eh_terminate.o)
                                  0x8 (size before relaxing)
 .ARM.exidx.text._ZNSt9exceptionD2Ev
                0x020414b0        0x0 c:/users/riedle/nds/devkitpro/devkitarm/bin/../lib/gcc/arm-none-eabi/4.7.1/../../../../arm-none-eabi/lib/thumb\libstdc++.a(eh_exception.o)
                                  0x8 (size before relaxing)
 .ARM.exidx.text._ZNSt13bad_exceptionD2Ev
                0x020414b0        0x0 c:/users/riedle/nds/devkitpro/devkitarm/bin/../lib/gcc/arm-none-eabi/4.7.1/../../../../arm-none-eabi/lib/thumb\libstdc++.a(eh_exception.o)
                                  0x8 (size before relaxing)
 .ARM.exidx.text._ZN10__cxxabiv115__forced_unwindD2Ev
                0x020414b0        0x0 c:/users/riedle/nds/devkitpro/devkitarm/bin/../lib/gcc/arm-none-eabi/4.7.1/../../../../arm-none-eabi/lib/thumb\libstdc++.a(eh_exception.o)
                                  0x8 (size before relaxing)
 .ARM.exidx.text._ZN10__cxxabiv119__foreign_exceptionD2Ev
                0x020414b0        0x0 c:/users/riedle/nds/devkitpro/devkitarm/bin/../lib/gcc/arm-none-eabi/4.7.1/../../../../arm-none-eabi/lib/thumb\libstdc++.a(eh_exception.o)
                                  0x8 (size before relaxing)
 .ARM.exidx.text._ZNKSt9exception4whatEv
                0x020414b0        0x0 c:/users/riedle/nds/devkitpro/devkitarm/bin/../lib/gcc/arm-none-eabi/4.7.1/../../../../arm-none-eabi/lib/thumb\libstdc++.a(eh_exception.o)
                                  0x8 (size before relaxing)
 .ARM.exidx.text._ZNKSt13bad_exception4whatEv
                0x020414b0        0x0 c:/users/riedle/nds/devkitpro/devkitarm/bin/../lib/gcc/arm-none-eabi/4.7.1/../../../../arm-none-eabi/lib/thumb\libstdc++.a(eh_exception.o)
                                  0x8 (size before relaxing)
 .ARM.exidx.text._ZN10__cxxabiv119__foreign_exceptionD0Ev
                0x020414b0        0x0 c:/users/riedle/nds/devkitpro/devkitarm/bin/../lib/gcc/arm-none-eabi/4.7.1/../../../../arm-none-eabi/lib/thumb\libstdc++.a(eh_exception.o)
                                  0x8 (size before relaxing)
 .ARM.exidx.text._ZN10__cxxabiv115__forced_unwindD0Ev
                0x020414b0        0x0 c:/users/riedle/nds/devkitpro/devkitarm/bin/../lib/gcc/arm-none-eabi/4.7.1/../../../../arm-none-eabi/lib/thumb\libstdc++.a(eh_exception.o)
                                  0x8 (size before relaxing)
 .ARM.exidx.text._ZNSt9exceptionD0Ev
                0x020414b0        0x0 c:/users/riedle/nds/devkitpro/devkitarm/bin/../lib/gcc/arm-none-eabi/4.7.1/../../../../arm-none-eabi/lib/thumb\libstdc++.a(eh_exception.o)
                                  0x8 (size before relaxing)
 .ARM.exidx.text._ZNSt13bad_exceptionD0Ev
                0x020414b0        0x0 c:/users/riedle/nds/devkitpro/devkitarm/bin/../lib/gcc/arm-none-eabi/4.7.1/../../../../arm-none-eabi/lib/thumb\libstdc++.a(eh_exception.o)
                                  0x8 (size before relaxing)
 .ARM.exidx.text.__cxa_allocate_exception
                0x020414b0        0x0 c:/users/riedle/nds/devkitpro/devkitarm/bin/../lib/gcc/arm-none-eabi/4.7.1/../../../../arm-none-eabi/lib/thumb\libstdc++.a(eh_alloc.o)
                                  0x8 (size before relaxing)
 .ARM.exidx.text.__cxa_free_exception
                0x020414b0        0x0 c:/users/riedle/nds/devkitpro/devkitarm/bin/../lib/gcc/arm-none-eabi/4.7.1/../../../../arm-none-eabi/lib/thumb\libstdc++.a(eh_alloc.o)
                                  0x8 (size before relaxing)
 .ARM.exidx.text.__cxa_allocate_dependent_exception
                0x020414b0        0x0 c:/users/riedle/nds/devkitpro/devkitarm/bin/../lib/gcc/arm-none-eabi/4.7.1/../../../../arm-none-eabi/lib/thumb\libstdc++.a(eh_alloc.o)
                                  0x8 (size before relaxing)
 .ARM.exidx.text.__cxa_free_dependent_exception
                0x020414b0        0x0 c:/users/riedle/nds/devkitpro/devkitarm/bin/../lib/gcc/arm-none-eabi/4.7.1/../../../../arm-none-eabi/lib/thumb\libstdc++.a(eh_alloc.o)
                                  0x8 (size before relaxing)
 .ARM.exidx.text._ZNKSt9bad_alloc4whatEv
                0x020414b0        0x0 c:/users/riedle/nds/devkitpro/devkitarm/bin/../lib/gcc/arm-none-eabi/4.7.1/../../../../arm-none-eabi/lib/thumb\libstdc++.a(bad_alloc.o)
                                  0x8 (size before relaxing)
 .ARM.exidx.text._ZNSt9bad_allocD2Ev
                0x020414b0        0x0 c:/users/riedle/nds/devkitpro/devkitarm/bin/../lib/gcc/arm-none-eabi/4.7.1/../../../../arm-none-eabi/lib/thumb\libstdc++.a(bad_alloc.o)
                                  0x8 (size before relaxing)
 .ARM.exidx.text._ZNSt9bad_allocD0Ev
                0x020414b0        0x0 c:/users/riedle/nds/devkitpro/devkitarm/bin/../lib/gcc/arm-none-eabi/4.7.1/../../../../arm-none-eabi/lib/thumb\libstdc++.a(bad_alloc.o)
                                  0x8 (size before relaxing)
 .ARM.exidx.text._ZNK10__cxxabiv117__class_type_info11__do_upcastEPKS0_PPv
                0x020414b0        0x8 c:/users/riedle/nds/devkitpro/devkitarm/bin/../lib/gcc/arm-none-eabi/4.7.1/../../../../arm-none-eabi/lib/thumb\libstdc++.a(class_type_info.o)
 .ARM.exidx.text._ZNK10__cxxabiv117__class_type_info20__do_find_public_srcEiPKvPKS0_S2_
                0x020414b8        0x8 c:/users/riedle/nds/devkitpro/devkitarm/bin/../lib/gcc/arm-none-eabi/4.7.1/../../../../arm-none-eabi/lib/thumb\libstdc++.a(class_type_info.o)
 .ARM.exidx.text._ZNK10__cxxabiv117__class_type_info11__do_upcastEPKS0_PKvRNS0_15__upcast_resultE
                0x020414c0        0x8 c:/users/riedle/nds/devkitpro/devkitarm/bin/../lib/gcc/arm-none-eabi/4.7.1/../../../../arm-none-eabi/lib/thumb\libstdc++.a(class_type_info.o)
 .ARM.exidx.text._ZN10__cxxabiv117__class_type_infoD2Ev
                0x020414c8        0x8 c:/users/riedle/nds/devkitpro/devkitarm/bin/../lib/gcc/arm-none-eabi/4.7.1/../../../../arm-none-eabi/lib/thumb\libstdc++.a(class_type_info.o)
 .ARM.exidx.text._ZN10__cxxabiv117__class_type_infoD0Ev
                0x020414d0        0x0 c:/users/riedle/nds/devkitpro/devkitarm/bin/../lib/gcc/arm-none-eabi/4.7.1/../../../../arm-none-eabi/lib/thumb\libstdc++.a(class_type_info.o)
                                  0x8 (size before relaxing)
 .ARM.exidx.text._ZNK10__cxxabiv117__class_type_info12__do_dyncastEiNS0_10__sub_kindEPKS0_PKvS3_S5_RNS0_16__dyncast_resultE
                0x020414d0        0x8 c:/users/riedle/nds/devkitpro/devkitarm/bin/../lib/gcc/arm-none-eabi/4.7.1/../../../../arm-none-eabi/lib/thumb\libstdc++.a(class_type_info.o)
 .ARM.exidx.text._ZNK10__cxxabiv117__class_type_info10__do_catchEPKSt9type_infoPPvj
                0x020414d8        0x8 c:/users/riedle/nds/devkitpro/devkitarm/bin/../lib/gcc/arm-none-eabi/4.7.1/../../../../arm-none-eabi/lib/thumb\libstdc++.a(class_type_info.o)
 .ARM.exidx.text._ZSt15set_new_handlerPFvvE
                0x020414e0        0x8 c:/users/riedle/nds/devkitpro/devkitarm/bin/../lib/gcc/arm-none-eabi/4.7.1/../../../../arm-none-eabi/lib/thumb\libstdc++.a(new_handler.o)
 .ARM.exidx.text.__cxa_type_match
                0x020414e8        0x8 c:/users/riedle/nds/devkitpro/devkitarm/bin/../lib/gcc/arm-none-eabi/4.7.1/../../../../arm-none-eabi/lib/thumb\libstdc++.a(eh_arm.o)
 .ARM.exidx.text.__cxa_begin_cleanup
                0x020414f0        0x8 c:/users/riedle/nds/devkitpro/devkitarm/bin/../lib/gcc/arm-none-eabi/4.7.1/../../../../arm-none-eabi/lib/thumb\libstdc++.a(eh_arm.o)
 .ARM.exidx.text.__gnu_end_cleanup
                0x020414f8        0x0 c:/users/riedle/nds/devkitpro/devkitarm/bin/../lib/gcc/arm-none-eabi/4.7.1/../../../../arm-none-eabi/lib/thumb\libstdc++.a(eh_arm.o)
                                  0x8 (size before relaxing)
 .ARM.exidx.text._ZL23__gxx_exception_cleanup19_Unwind_Reason_CodeP21_Unwind_Control_Block
                0x020414f8        0x8 c:/users/riedle/nds/devkitpro/devkitarm/bin/../lib/gcc/arm-none-eabi/4.7.1/../../../../arm-none-eabi/lib/thumb\libstdc++.a(eh_throw.o)
 .ARM.exidx.text.__cxa_throw
                0x02041500        0x8 c:/users/riedle/nds/devkitpro/devkitarm/bin/../lib/gcc/arm-none-eabi/4.7.1/../../../../arm-none-eabi/lib/thumb\libstdc++.a(eh_throw.o)
 .ARM.exidx.text.__cxa_rethrow
                0x02041508        0x8 c:/users/riedle/nds/devkitpro/devkitarm/bin/../lib/gcc/arm-none-eabi/4.7.1/../../../../arm-none-eabi/lib/thumb\libstdc++.a(eh_throw.o)
 .ARM.exidx.text.__cxa_pure_virtual
                0x02041510        0x8 c:/users/riedle/nds/devkitpro/devkitarm/bin/../lib/gcc/arm-none-eabi/4.7.1/../../../../arm-none-eabi/lib/thumb\libstdc++.a(pure.o)
 .ARM.exidx.text.__cxa_deleted_virtual
                0x02041518        0x8 c:/users/riedle/nds/devkitpro/devkitarm/bin/../lib/gcc/arm-none-eabi/4.7.1/../../../../arm-none-eabi/lib/thumb\libstdc++.a(pure.o)
 .ARM.exidx.text.__cxa_get_globals_fast
                0x02041520        0x8 c:/users/riedle/nds/devkitpro/devkitarm/bin/../lib/gcc/arm-none-eabi/4.7.1/../../../../arm-none-eabi/lib/thumb\libstdc++.a(eh_globals.o)
 .ARM.exidx.text.__cxa_get_globals
                0x02041528        0x0 c:/users/riedle/nds/devkitpro/devkitarm/bin/../lib/gcc/arm-none-eabi/4.7.1/../../../../arm-none-eabi/lib/thumb\libstdc++.a(eh_globals.o)
                                  0x8 (size before relaxing)
 .ARM.exidx.text.__cxa_get_exception_ptr
                0x02041528        0x0 c:/users/riedle/nds/devkitpro/devkitarm/bin/../lib/gcc/arm-none-eabi/4.7.1/../../../../arm-none-eabi/lib/thumb\libstdc++.a(eh_catch.o)
                                  0x8 (size before relaxing)
 .ARM.exidx.text.__cxa_begin_catch
                0x02041528        0x8 c:/users/riedle/nds/devkitpro/devkitarm/bin/../lib/gcc/arm-none-eabi/4.7.1/../../../../arm-none-eabi/lib/thumb\libstdc++.a(eh_catch.o)
 .ARM.exidx.text.__cxa_end_catch
                0x02041530        0x8 c:/users/riedle/nds/devkitpro/devkitarm/bin/../lib/gcc/arm-none-eabi/4.7.1/../../../../arm-none-eabi/lib/thumb\libstdc++.a(eh_catch.o)
 .ARM.exidx.text._ZSt18uncaught_exceptionv
                0x02041538        0x8 c:/users/riedle/nds/devkitpro/devkitarm/bin/../lib/gcc/arm-none-eabi/4.7.1/../../../../arm-none-eabi/lib/thumb\libstdc++.a(eh_catch.o)
 .ARM.exidx.text._ZNK10__cxxabiv120__si_class_type_info12__do_dyncastEiNS_17__class_type_info10__sub_kindEPKS1_PKvS4_S6_RNS1_16__dyncast_resultE
                0x02041540        0x8 c:/users/riedle/nds/devkitpro/devkitarm/bin/../lib/gcc/arm-none-eabi/4.7.1/../../../../arm-none-eabi/lib/thumb\libstdc++.a(si_class_type_info.o)
 .ARM.exidx.text._ZN10__cxxabiv120__si_class_type_infoD2Ev
                0x02041548        0x8 c:/users/riedle/nds/devkitpro/devkitarm/bin/../lib/gcc/arm-none-eabi/4.7.1/../../../../arm-none-eabi/lib/thumb\libstdc++.a(si_class_type_info.o)
 .ARM.exidx.text._ZN10__cxxabiv120__si_class_type_infoD0Ev
                0x02041550        0x0 c:/users/riedle/nds/devkitpro/devkitarm/bin/../lib/gcc/arm-none-eabi/4.7.1/../../../../arm-none-eabi/lib/thumb\libstdc++.a(si_class_type_info.o)
                                  0x8 (size before relaxing)
 .ARM.exidx.text._ZNK10__cxxabiv120__si_class_type_info11__do_upcastEPKNS_17__class_type_infoEPKvRNS1_15__upcast_resultE
                0x02041550        0x8 c:/users/riedle/nds/devkitpro/devkitarm/bin/../lib/gcc/arm-none-eabi/4.7.1/../../../../arm-none-eabi/lib/thumb\libstdc++.a(si_class_type_info.o)
 .ARM.exidx.text._ZNK10__cxxabiv120__si_class_type_info20__do_find_public_srcEiPKvPKNS_17__class_type_infoES2_
                0x02041558        0x8 c:/users/riedle/nds/devkitpro/devkitarm/bin/../lib/gcc/arm-none-eabi/4.7.1/../../../../arm-none-eabi/lib/thumb\libstdc++.a(si_class_type_info.o)
 .ARM.exidx.text._ZNSt9type_infoD2Ev
                0x02041560        0x8 c:/users/riedle/nds/devkitpro/devkitarm/bin/../lib/gcc/arm-none-eabi/4.7.1/../../../../arm-none-eabi/lib/thumb\libstdc++.a(tinfo.o)
 .ARM.exidx.text._ZNKSt9type_info14__is_pointer_pEv
                0x02041568        0x0 c:/users/riedle/nds/devkitpro/devkitarm/bin/../lib/gcc/arm-none-eabi/4.7.1/../../../../arm-none-eabi/lib/thumb\libstdc++.a(tinfo.o)
                                  0x8 (size before relaxing)
 .ARM.exidx.text._ZNKSt9type_info15__is_function_pEv
                0x02041568        0x0 c:/users/riedle/nds/devkitpro/devkitarm/bin/../lib/gcc/arm-none-eabi/4.7.1/../../../../arm-none-eabi/lib/thumb\libstdc++.a(tinfo.o)
                                  0x8 (size before relaxing)
 .ARM.exidx.text._ZNKSt9type_info11__do_upcastEPKN10__cxxabiv117__class_type_infoEPPv
                0x02041568        0x0 c:/users/riedle/nds/devkitpro/devkitarm/bin/../lib/gcc/arm-none-eabi/4.7.1/../../../../arm-none-eabi/lib/thumb\libstdc++.a(tinfo.o)
                                  0x8 (size before relaxing)
 .ARM.exidx.text._ZNSt9type_infoD0Ev
                0x02041568        0x0 c:/users/riedle/nds/devkitpro/devkitarm/bin/../lib/gcc/arm-none-eabi/4.7.1/../../../../arm-none-eabi/lib/thumb\libstdc++.a(tinfo.o)
                                  0x8 (size before relaxing)
 .ARM.exidx.text._ZNKSt9type_infoeqERKS_
                0x02041568        0x0 c:/users/riedle/nds/devkitpro/devkitarm/bin/../lib/gcc/arm-none-eabi/4.7.1/../../../../arm-none-eabi/lib/thumb\libstdc++.a(tinfo.o)
                                  0x8 (size before relaxing)
 .ARM.exidx.text._ZNKSt9type_info10__do_catchEPKS_PPvj
                0x02041568        0x0 c:/users/riedle/nds/devkitpro/devkitarm/bin/../lib/gcc/arm-none-eabi/4.7.1/../../../../arm-none-eabi/lib/thumb\libstdc++.a(tinfo.o)
                                  0x8 (size before relaxing)
 .ARM.exidx.text._ZN9__gnu_cxx27__verbose_terminate_handlerEv
                0x02041568        0x8 c:/users/riedle/nds/devkitpro/devkitarm/bin/../lib/gcc/arm-none-eabi/4.7.1/../../../../arm-none-eabi/lib/thumb\libstdc++.a(vterminate.o)
 .ARM.exidx.text.__cxa_current_exception_type
                0x02041570        0x8 c:/users/riedle/nds/devkitpro/devkitarm/bin/../lib/gcc/arm-none-eabi/4.7.1/../../../../arm-none-eabi/lib/thumb\libstdc++.a(eh_type.o)
                0x02041578                __exidx_end = .

.rel.dyn        0x02041578        0x0
 .rel.iplt      0x00000000        0x0 c:/users/riedle/nds/devkitpro/devkitarm/bin/../lib/gcc/arm-none-eabi/4.7.1/../../../../arm-none-eabi/lib/thumb/ds_arm9_crt0.o
                0x02041578                . = ALIGN (0x4)
                0x02041578                PROVIDE (__preinit_array_start, .)

.preinit_array
 *(.preinit_array)
                0x02041578                PROVIDE (__preinit_array_end, .)
                0x02041578                PROVIDE (__init_array_start, .)

.init_array     0x02041578        0x4
 *(SORT(.init_array.*))
 *(.init_array)
 .init_array    0x02041578        0x4 c:/users/riedle/nds/devkitpro/devkitarm/bin/../lib/gcc/arm-none-eabi/4.7.1/thumb/crtbegin.o
                0x0204157c                PROVIDE (__init_array_end, .)
                0x0204157c                PROVIDE (__fini_array_start, .)

.fini_array     0x0204157c        0x4
 *(.fini_array)
 .fini_array    0x0204157c        0x4 c:/users/riedle/nds/devkitpro/devkitarm/bin/../lib/gcc/arm-none-eabi/4.7.1/thumb/crtbegin.o
 *(SORT(.fini_array.*))
                0x02041580                PROVIDE (__fini_array_end, .)

.ctors          0x02041580        0x0
 *crtbegin.o(.ctors)
 *(EXCLUDE_FILE(*crtend.o) .ctors)
 *(SORT(.ctors.*))
 *(.ctors)
                0x02041580                . = ALIGN (0x4)

.dtors          0x02041580        0x0
 *crtbegin.o(.dtors)
 *(EXCLUDE_FILE(*crtend.o) .dtors)
 *(SORT(.dtors.*))
 *(.dtors)
                0x02041580                . = ALIGN (0x4)

.eh_frame       0x02041580        0x4
 *(.eh_frame)
 .eh_frame      0x02041580        0x0 c:/users/riedle/nds/devkitpro/devkitarm/bin/../lib/gcc/arm-none-eabi/4.7.1/thumb/crtbegin.o
 .eh_frame      0x02041580        0x4 c:/users/riedle/nds/devkitpro/devkitarm/bin/../lib/gcc/arm-none-eabi/4.7.1/thumb/crtend.o
                0x02041584                . = ALIGN (0x4)

.gcc_except_table
                0x02041584        0x0
 *(.gcc_except_table)
                0x02041584                . = ALIGN (0x4)

.jcr            0x02041584        0x4
 *(.jcr)
 .jcr           0x02041584        0x0 c:/users/riedle/nds/devkitpro/devkitarm/bin/../lib/gcc/arm-none-eabi/4.7.1/thumb/crtbegin.o
 .jcr           0x02041584        0x4 c:/users/riedle/nds/devkitpro/devkitarm/bin/../lib/gcc/arm-none-eabi/4.7.1/thumb/crtend.o

.got
 *(.got.plt)
 *(.got)
 *(.rel.got)

.ewram          0x02041588        0x0
                0x02041588                __ewram_start = ABSOLUTE (.)
 *(.ewram)
 *ewram.*(.text)
                0x02041588                . = ALIGN (0x4)

.data           0x02041588      0xb90
                0x02041588                __data_start = ABSOLUTE (.)
 *(.data)
 .data          0x02041588        0x0 c:/users/riedle/nds/devkitpro/devkitarm/bin/../lib/gcc/arm-none-eabi/4.7.1/../../../../arm-none-eabi/lib/thumb/ds_arm9_crt0.o
 .data          0x02041588        0x0 c:/users/riedle/nds/devkitpro/devkitarm/bin/../lib/gcc/arm-none-eabi/4.7.1/thumb/crti.o
 .data          0x02041588        0x4 c:/users/riedle/nds/devkitpro/devkitarm/bin/../lib/gcc/arm-none-eabi/4.7.1/thumb/crtbegin.o
                0x02041588                __dso_handle
 .data          0x0204158c       0x28 main.o
                0x0204158c                object::className
                0x02041590                object::Functions
 .data          0x020415b4        0x0 lapi.o
 .data          0x020415b4        0x0 lauxlib.o
 .data          0x020415b4        0x0 lbaselib.o
 .data          0x020415b4        0x0 lbitlib.o
 .data          0x020415b4        0x0 lcode.o
 .data          0x020415b4        0x0 lcorolib.o
 .data          0x020415b4        0x0 lctype.o
 .data          0x020415b4        0x0 ldblib.o
 .data          0x020415b4        0x0 ldebug.o
 .data          0x020415b4        0x0 ldo.o
 .data          0x020415b4        0x0 ldump.o
 .data          0x020415b4        0x0 lfunc.o
 .data          0x020415b4        0x0 lgc.o
 .data          0x020415b4        0x0 linit.o
 .data          0x020415b4        0x0 liolib.o
 .data          0x020415b4        0x0 llex.o
 .data          0x020415b4        0x0 lmathlib.o
 .data          0x020415b4        0x0 lmem.o
 .data          0x020415b4        0x0 loadlib.o
 .data          0x020415b4        0x0 lobject.o
 .data          0x020415b4        0x0 lopcodes.o
 .data          0x020415b4        0x0 loslib.o
 .data          0x020415b4        0x0 lparser.o
 .data          0x020415b4        0x0 lstate.o
 .data          0x020415b4        0x0 lstring.o
 .data          0x020415b4        0x0 lstrlib.o
 .data          0x020415b4        0x0 ltable.o
 .data          0x020415b4        0x0 ltablib.o
 .data          0x020415b4        0x0 ltm.o
 .data          0x020415b4        0x0 lundump.o
 .data          0x020415b4        0x0 lvm.o
 .data          0x020415b4        0x0 lzio.o
 .data          0x020415b4       0x64 c:/Users/riedle/NDS/DEVKITPRO/libnds/lib\libnds9.a(console.o)
                0x020415b4                currentConsole
                0x020415b8                defaultConsole
 .data          0x02041618        0x0 c:/Users/riedle/NDS/DEVKITPRO/libnds/lib\libnds9.a(initSystem.o)
 .data          0x02041618       0x10 c:/Users/riedle/NDS/DEVKITPRO/libnds/lib\libnds9.a(fifosystem.o)
                0x02041618                fifo_buffer_free
                0x0204161c                fifo_freewords
                0x02041620                fifo_send_queue
                0x02041624                fifo_receive_queue
 .data          0x02041628        0x0 c:/Users/riedle/NDS/DEVKITPRO/libnds/lib\libnds9.a(interrupts.o)
 .data          0x02041628        0x0 c:/Users/riedle/NDS/DEVKITPRO/libnds/lib\libnds9.a(libnds_exit.arm.o)
 .data          0x02041628        0x0 c:/Users/riedle/NDS/DEVKITPRO/libnds/lib\libnds9.a(mpu_setup.o)
 .data          0x02041628        0x0 c:/Users/riedle/NDS/DEVKITPRO/libnds/lib\libnds9.a(biosCalls.o)
 .data          0x02041628        0x0 c:/Users/riedle/NDS/DEVKITPRO/libnds/lib\libnds9.a(debugprint.o)
 .data          0x02041628        0x0 c:/Users/riedle/NDS/DEVKITPRO/libnds/lib\libnds9.a(interruptDispatcher.o)
 .data          0x02041628        0x0 c:/Users/riedle/NDS/DEVKITPRO/libnds/lib\libnds9.a(swiSoftReset.o)
 .data          0x02041628        0x0 c:/Users/riedle/NDS/DEVKITPRO/libnds/lib\libnds9.a(default_font.bin.o)
 .data          0x02041628       0x60 c:/Users/riedle/NDS/DEVKITPRO/libnds/lib\libnds9.a(background.o)
                0x02041628                bgScrollTable
                0x02041648                bgTransform
                0x02041668                bgControl
 .data          0x02041688        0x0 c:/Users/riedle/NDS/DEVKITPRO/libnds/lib\libnds9.a(system.o)
 .data          0x02041688        0x0 c:/Users/riedle/NDS/DEVKITPRO/libnds/lib\libnds9.a(trig.o)
 .data          0x02041688        0x0 c:/Users/riedle/NDS/DEVKITPRO/libnds/lib\libnds9.a(video.o)
 .data          0x02041688        0x0 c:/users/riedle/nds/devkitpro/devkitarm/bin/../lib/gcc/arm-none-eabi/4.7.1/../../../../arm-none-eabi/lib/thumb\libstdc++.a(new_op.o)
 .data          0x02041688        0x0 c:/users/riedle/nds/devkitpro/devkitarm/bin/../lib/gcc/arm-none-eabi/4.7.1/../../../../arm-none-eabi/lib/thumb\libstdc++.a(eh_call.o)
 .data          0x02041688        0x0 c:/users/riedle/nds/devkitpro/devkitarm/bin/../lib/gcc/arm-none-eabi/4.7.1/../../../../arm-none-eabi/lib/thumb\libstdc++.a(eh_personality.o)
 .data          0x02041688        0x0 c:/users/riedle/nds/devkitpro/devkitarm/bin/../lib/gcc/arm-none-eabi/4.7.1/../../../../arm-none-eabi/lib/thumb\libstdc++.a(del_op.o)
 .data          0x02041688        0x0 c:/users/riedle/nds/devkitpro/devkitarm/bin/../lib/gcc/arm-none-eabi/4.7.1/../../../../arm-none-eabi/lib/thumb\libstdc++.a(eh_terminate.o)
 .data          0x02041688        0x0 c:/users/riedle/nds/devkitpro/devkitarm/bin/../lib/gcc/arm-none-eabi/4.7.1/../../../../arm-none-eabi/lib/thumb\libstdc++.a(eh_exception.o)
 .data          0x02041688        0x0 c:/users/riedle/nds/devkitpro/devkitarm/bin/../lib/gcc/arm-none-eabi/4.7.1/../../../../arm-none-eabi/lib/thumb\libstdc++.a(eh_alloc.o)
 .data          0x02041688        0x0 c:/users/riedle/nds/devkitpro/devkitarm/bin/../lib/gcc/arm-none-eabi/4.7.1/../../../../arm-none-eabi/lib/thumb\libstdc++.a(bad_alloc.o)
 .data          0x02041688        0x0 c:/users/riedle/nds/devkitpro/devkitarm/bin/../lib/gcc/arm-none-eabi/4.7.1/../../../../arm-none-eabi/lib/thumb\libstdc++.a(class_type_info.o)
 .data          0x02041688        0x0 c:/users/riedle/nds/devkitpro/devkitarm/bin/../lib/gcc/arm-none-eabi/4.7.1/../../../../arm-none-eabi/lib/thumb\libstdc++.a(new_handler.o)
 .data          0x02041688        0x0 c:/users/riedle/nds/devkitpro/devkitarm/bin/../lib/gcc/arm-none-eabi/4.7.1/../../../../arm-none-eabi/lib/thumb\libstdc++.a(eh_arm.o)
 .data          0x02041688        0x0 c:/users/riedle/nds/devkitpro/devkitarm/bin/../lib/gcc/arm-none-eabi/4.7.1/../../../../arm-none-eabi/lib/thumb\libstdc++.a(eh_throw.o)
 .data          0x02041688        0x0 c:/users/riedle/nds/devkitpro/devkitarm/bin/../lib/gcc/arm-none-eabi/4.7.1/../../../../arm-none-eabi/lib/thumb\libstdc++.a(pure.o)
 .data          0x02041688        0x0 c:/users/riedle/nds/devkitpro/devkitarm/bin/../lib/gcc/arm-none-eabi/4.7.1/../../../../arm-none-eabi/lib/thumb\libstdc++.a(eh_globals.o)
 .data          0x02041688        0x0 c:/users/riedle/nds/devkitpro/devkitarm/bin/../lib/gcc/arm-none-eabi/4.7.1/../../../../arm-none-eabi/lib/thumb\libstdc++.a(eh_catch.o)
 .data          0x02041688        0x0 c:/users/riedle/nds/devkitpro/devkitarm/bin/../lib/gcc/arm-none-eabi/4.7.1/../../../../arm-none-eabi/lib/thumb\libstdc++.a(si_class_type_info.o)
 .data          0x02041688        0x0 c:/users/riedle/nds/devkitpro/devkitarm/bin/../lib/gcc/arm-none-eabi/4.7.1/../../../../arm-none-eabi/lib/thumb\libstdc++.a(eh_unex_handler.o)
 .data          0x02041688        0x0 c:/users/riedle/nds/devkitpro/devkitarm/bin/../lib/gcc/arm-none-eabi/4.7.1/../../../../arm-none-eabi/lib/thumb\libstdc++.a(tinfo.o)
 .data          0x02041688        0x0 c:/users/riedle/nds/devkitpro/devkitarm/bin/../lib/gcc/arm-none-eabi/4.7.1/../../../../arm-none-eabi/lib/thumb\libstdc++.a(eh_term_handler.o)
 .data          0x02041688        0x0 c:/users/riedle/nds/devkitpro/devkitarm/bin/../lib/gcc/arm-none-eabi/4.7.1/../../../../arm-none-eabi/lib/thumb\libstdc++.a(vterminate.o)
 .data          0x02041688        0x0 c:/users/riedle/nds/devkitpro/devkitarm/bin/../lib/gcc/arm-none-eabi/4.7.1/../../../../arm-none-eabi/lib/thumb\libstdc++.a(eh_type.o)
 .data          0x02041688        0x0 c:/users/riedle/nds/devkitpro/devkitarm/bin/../lib/gcc/arm-none-eabi/4.7.1/../../../../arm-none-eabi/lib/thumb\libstdc++.a(cp-demangle.o)
 .data          0x02041688        0x0 c:/users/riedle/nds/devkitpro/devkitarm/bin/../lib/gcc/arm-none-eabi/4.7.1/../../../../arm-none-eabi/lib/thumb\libm.a(lib_a-s_atan.o)
 .data          0x02041688        0x0 c:/users/riedle/nds/devkitpro/devkitarm/bin/../lib/gcc/arm-none-eabi/4.7.1/../../../../arm-none-eabi/lib/thumb\libm.a(lib_a-s_ceil.o)
 .data          0x02041688        0x0 c:/users/riedle/nds/devkitpro/devkitarm/bin/../lib/gcc/arm-none-eabi/4.7.1/../../../../arm-none-eabi/lib/thumb\libm.a(lib_a-s_cos.o)
 .data          0x02041688        0x0 c:/users/riedle/nds/devkitpro/devkitarm/bin/../lib/gcc/arm-none-eabi/4.7.1/../../../../arm-none-eabi/lib/thumb\libm.a(lib_a-s_fabs.o)
 .data          0x02041688        0x0 c:/users/riedle/nds/devkitpro/devkitarm/bin/../lib/gcc/arm-none-eabi/4.7.1/../../../../arm-none-eabi/lib/thumb\libm.a(lib_a-s_floor.o)
 .data          0x02041688        0x0 c:/users/riedle/nds/devkitpro/devkitarm/bin/../lib/gcc/arm-none-eabi/4.7.1/../../../../arm-none-eabi/lib/thumb\libm.a(lib_a-s_frexp.o)
 .data          0x02041688        0x0 c:/users/riedle/nds/devkitpro/devkitarm/bin/../lib/gcc/arm-none-eabi/4.7.1/../../../../arm-none-eabi/lib/thumb\libm.a(lib_a-s_ldexp.o)
 .data          0x02041688        0x0 c:/users/riedle/nds/devkitpro/devkitarm/bin/../lib/gcc/arm-none-eabi/4.7.1/../../../../arm-none-eabi/lib/thumb\libm.a(lib_a-s_modf.o)
 .data          0x02041688        0x0 c:/users/riedle/nds/devkitpro/devkitarm/bin/../lib/gcc/arm-none-eabi/4.7.1/../../../../arm-none-eabi/lib/thumb\libm.a(lib_a-s_scalbn.o)
 .data          0x02041688        0x0 c:/users/riedle/nds/devkitpro/devkitarm/bin/../lib/gcc/arm-none-eabi/4.7.1/../../../../arm-none-eabi/lib/thumb\libm.a(lib_a-s_sin.o)
 .data          0x02041688        0x0 c:/users/riedle/nds/devkitpro/devkitarm/bin/../lib/gcc/arm-none-eabi/4.7.1/../../../../arm-none-eabi/lib/thumb\libm.a(lib_a-s_tanh.o)
 .data          0x02041688        0x0 c:/users/riedle/nds/devkitpro/devkitarm/bin/../lib/gcc/arm-none-eabi/4.7.1/../../../../arm-none-eabi/lib/thumb\libm.a(lib_a-s_tan.o)
 .data          0x02041688        0x0 c:/users/riedle/nds/devkitpro/devkitarm/bin/../lib/gcc/arm-none-eabi/4.7.1/../../../../arm-none-eabi/lib/thumb\libm.a(lib_a-w_acos.o)
 .data          0x02041688        0x0 c:/users/riedle/nds/devkitpro/devkitarm/bin/../lib/gcc/arm-none-eabi/4.7.1/../../../../arm-none-eabi/lib/thumb\libm.a(lib_a-w_asin.o)
 .data          0x02041688        0x0 c:/users/riedle/nds/devkitpro/devkitarm/bin/../lib/gcc/arm-none-eabi/4.7.1/../../../../arm-none-eabi/lib/thumb\libm.a(lib_a-w_atan2.o)
 .data          0x02041688        0x0 c:/users/riedle/nds/devkitpro/devkitarm/bin/../lib/gcc/arm-none-eabi/4.7.1/../../../../arm-none-eabi/lib/thumb\libm.a(lib_a-w_cosh.o)
 .data          0x02041688        0x0 c:/users/riedle/nds/devkitpro/devkitarm/bin/../lib/gcc/arm-none-eabi/4.7.1/../../../../arm-none-eabi/lib/thumb\libm.a(lib_a-w_exp.o)
 .data          0x02041688        0x0 c:/users/riedle/nds/devkitpro/devkitarm/bin/../lib/gcc/arm-none-eabi/4.7.1/../../../../arm-none-eabi/lib/thumb\libm.a(lib_a-w_fmod.o)
 .data          0x02041688        0x0 c:/users/riedle/nds/devkitpro/devkitarm/bin/../lib/gcc/arm-none-eabi/4.7.1/../../../../arm-none-eabi/lib/thumb\libm.a(lib_a-w_log10.o)
 .data          0x02041688        0x0 c:/users/riedle/nds/devkitpro/devkitarm/bin/../lib/gcc/arm-none-eabi/4.7.1/../../../../arm-none-eabi/lib/thumb\libm.a(lib_a-w_log.o)
 .data          0x02041688        0x0 c:/users/riedle/nds/devkitpro/devkitarm/bin/../lib/gcc/arm-none-eabi/4.7.1/../../../../arm-none-eabi/lib/thumb\libm.a(lib_a-w_pow.o)
 .data          0x02041688        0x0 c:/users/riedle/nds/devkitpro/devkitarm/bin/../lib/gcc/arm-none-eabi/4.7.1/../../../../arm-none-eabi/lib/thumb\libm.a(lib_a-w_sinh.o)
 .data          0x02041688        0x0 c:/users/riedle/nds/devkitpro/devkitarm/bin/../lib/gcc/arm-none-eabi/4.7.1/../../../../arm-none-eabi/lib/thumb\libm.a(lib_a-w_sqrt.o)
 .data          0x02041688        0x0 c:/users/riedle/nds/devkitpro/devkitarm/bin/../lib/gcc/arm-none-eabi/4.7.1/../../../../arm-none-eabi/lib/thumb\libm.a(lib_a-e_acos.o)
 .data          0x02041688        0x0 c:/users/riedle/nds/devkitpro/devkitarm/bin/../lib/gcc/arm-none-eabi/4.7.1/../../../../arm-none-eabi/lib/thumb\libm.a(lib_a-e_asin.o)
 .data          0x02041688        0x0 c:/users/riedle/nds/devkitpro/devkitarm/bin/../lib/gcc/arm-none-eabi/4.7.1/../../../../arm-none-eabi/lib/thumb\libm.a(lib_a-e_atan2.o)
 .data          0x02041688        0x0 c:/users/riedle/nds/devkitpro/devkitarm/bin/../lib/gcc/arm-none-eabi/4.7.1/../../../../arm-none-eabi/lib/thumb\libm.a(lib_a-e_cosh.o)
 .data          0x02041688        0x0 c:/users/riedle/nds/devkitpro/devkitarm/bin/../lib/gcc/arm-none-eabi/4.7.1/../../../../arm-none-eabi/lib/thumb\libm.a(lib_a-e_exp.o)
 .data          0x02041688        0x0 c:/users/riedle/nds/devkitpro/devkitarm/bin/../lib/gcc/arm-none-eabi/4.7.1/../../../../arm-none-eabi/lib/thumb\libm.a(lib_a-e_fmod.o)
 .data          0x02041688        0x0 c:/users/riedle/nds/devkitpro/devkitarm/bin/../lib/gcc/arm-none-eabi/4.7.1/../../../../arm-none-eabi/lib/thumb\libm.a(lib_a-e_log10.o)
 .data          0x02041688        0x0 c:/users/riedle/nds/devkitpro/devkitarm/bin/../lib/gcc/arm-none-eabi/4.7.1/../../../../arm-none-eabi/lib/thumb\libm.a(lib_a-e_log.o)
 .data          0x02041688        0x0 c:/users/riedle/nds/devkitpro/devkitarm/bin/../lib/gcc/arm-none-eabi/4.7.1/../../../../arm-none-eabi/lib/thumb\libm.a(lib_a-e_pow.o)
 .data          0x02041688        0x0 c:/users/riedle/nds/devkitpro/devkitarm/bin/../lib/gcc/arm-none-eabi/4.7.1/../../../../arm-none-eabi/lib/thumb\libm.a(lib_a-e_rem_pio2.o)
 .data          0x02041688        0x0 c:/users/riedle/nds/devkitpro/devkitarm/bin/../lib/gcc/arm-none-eabi/4.7.1/../../../../arm-none-eabi/lib/thumb\libm.a(lib_a-e_sinh.o)
 .data          0x02041688        0x0 c:/users/riedle/nds/devkitpro/devkitarm/bin/../lib/gcc/arm-none-eabi/4.7.1/../../../../arm-none-eabi/lib/thumb\libm.a(lib_a-e_sqrt.o)
 .data          0x02041688        0x0 c:/users/riedle/nds/devkitpro/devkitarm/bin/../lib/gcc/arm-none-eabi/4.7.1/../../../../arm-none-eabi/lib/thumb\libm.a(lib_a-k_cos.o)
 .data          0x02041688        0x0 c:/users/riedle/nds/devkitpro/devkitarm/bin/../lib/gcc/arm-none-eabi/4.7.1/../../../../arm-none-eabi/lib/thumb\libm.a(lib_a-k_rem_pio2.o)
 .data          0x02041688        0x0 c:/users/riedle/nds/devkitpro/devkitarm/bin/../lib/gcc/arm-none-eabi/4.7.1/../../../../arm-none-eabi/lib/thumb\libm.a(lib_a-k_sin.o)
 .data          0x02041688        0x0 c:/users/riedle/nds/devkitpro/devkitarm/bin/../lib/gcc/arm-none-eabi/4.7.1/../../../../arm-none-eabi/lib/thumb\libm.a(lib_a-k_tan.o)
 .data          0x02041688        0x0 c:/users/riedle/nds/devkitpro/devkitarm/bin/../lib/gcc/arm-none-eabi/4.7.1/../../../../arm-none-eabi/lib/thumb\libm.a(lib_a-s_copysign.o)
 .data          0x02041688        0x0 c:/users/riedle/nds/devkitpro/devkitarm/bin/../lib/gcc/arm-none-eabi/4.7.1/../../../../arm-none-eabi/lib/thumb\libm.a(lib_a-s_expm1.o)
 .data          0x02041688        0x0 c:/users/riedle/nds/devkitpro/devkitarm/bin/../lib/gcc/arm-none-eabi/4.7.1/../../../../arm-none-eabi/lib/thumb\libm.a(lib_a-s_finite.o)
 .data          0x02041688        0x0 c:/users/riedle/nds/devkitpro/devkitarm/bin/../lib/gcc/arm-none-eabi/4.7.1/../../../../arm-none-eabi/lib/thumb\libm.a(lib_a-s_fpclassify.o)
 .data          0x02041688        0x1 c:/users/riedle/nds/devkitpro/devkitarm/bin/../lib/gcc/arm-none-eabi/4.7.1/../../../../arm-none-eabi/lib/thumb\libm.a(lib_a-s_lib_ver.o)
                0x02041688                __fdlib_version
 .data          0x02041689        0x0 c:/users/riedle/nds/devkitpro/devkitarm/bin/../lib/gcc/arm-none-eabi/4.7.1/../../../../arm-none-eabi/lib/thumb\libm.a(lib_a-s_matherr.o)
 .data          0x02041689        0x0 c:/users/riedle/nds/devkitpro/devkitarm/bin/../lib/gcc/arm-none-eabi/4.7.1/../../../../arm-none-eabi/lib/thumb\libm.a(lib_a-s_nan.o)
 .data          0x02041689        0x0 c:/users/riedle/nds/devkitpro/devkitarm/bin/../lib/gcc/arm-none-eabi/4.7.1/../../../../arm-none-eabi/lib/thumb\libm.a(lib_a-s_rint.o)
 .data          0x02041689        0x0 c:/users/riedle/nds/devkitpro/devkitarm/bin/../lib/gcc/arm-none-eabi/4.7.1/thumb\libgcc.a(_udivsi3.o)
 .data          0x02041689        0x0 c:/users/riedle/nds/devkitpro/devkitarm/bin/../lib/gcc/arm-none-eabi/4.7.1/thumb\libgcc.a(_divsi3.o)
 .data          0x02041689        0x0 c:/users/riedle/nds/devkitpro/devkitarm/bin/../lib/gcc/arm-none-eabi/4.7.1/thumb\libgcc.a(_dvmd_tls.o)
 .data          0x02041689        0x0 c:/users/riedle/nds/devkitpro/devkitarm/bin/../lib/gcc/arm-none-eabi/4.7.1/thumb\libgcc.a(_arm_addsubdf3.o)
 .data          0x02041689        0x0 c:/users/riedle/nds/devkitpro/devkitarm/bin/../lib/gcc/arm-none-eabi/4.7.1/thumb\libgcc.a(_arm_muldivdf3.o)
 .data          0x02041689        0x0 c:/users/riedle/nds/devkitpro/devkitarm/bin/../lib/gcc/arm-none-eabi/4.7.1/thumb\libgcc.a(_arm_cmpdf2.o)
 .data          0x02041689        0x0 c:/users/riedle/nds/devkitpro/devkitarm/bin/../lib/gcc/arm-none-eabi/4.7.1/thumb\libgcc.a(_arm_fixdfsi.o)
 .data          0x02041689        0x0 c:/users/riedle/nds/devkitpro/devkitarm/bin/../lib/gcc/arm-none-eabi/4.7.1/thumb\libgcc.a(_arm_fixunsdfsi.o)
 .data          0x02041689        0x0 c:/users/riedle/nds/devkitpro/devkitarm/bin/../lib/gcc/arm-none-eabi/4.7.1/thumb\libgcc.a(unwind-arm.o)
 .data          0x02041689        0x0 c:/users/riedle/nds/devkitpro/devkitarm/bin/../lib/gcc/arm-none-eabi/4.7.1/thumb\libgcc.a(libunwind.o)
 .data          0x02041689        0x0 c:/users/riedle/nds/devkitpro/devkitarm/bin/../lib/gcc/arm-none-eabi/4.7.1/thumb\libgcc.a(pr-support.o)
 .data          0x02041689        0x0 c:/users/riedle/nds/devkitpro/devkitarm/bin/../lib/gcc/arm-none-eabi/4.7.1/../../../../arm-none-eabi/lib/thumb\libg.a(lib_a-abort.o)
 .data          0x02041689        0x0 c:/users/riedle/nds/devkitpro/devkitarm/bin/../lib/gcc/arm-none-eabi/4.7.1/../../../../arm-none-eabi/lib/thumb\libg.a(lib_a-bsearch.o)
 .data          0x02041689        0x0 c:/users/riedle/nds/devkitpro/devkitarm/bin/../lib/gcc/arm-none-eabi/4.7.1/../../../../arm-none-eabi/lib/thumb\libg.a(lib_a-clock.o)
 *fill*         0x02041689        0x3 ff
 .data          0x0204168c        0x4 c:/users/riedle/nds/devkitpro/devkitarm/bin/../lib/gcc/arm-none-eabi/4.7.1/../../../../arm-none-eabi/lib/thumb\libg.a(lib_a-ctype_.o)
                0x0204168c                __ctype_ptr__
 .data          0x02041690        0x0 c:/users/riedle/nds/devkitpro/devkitarm/bin/../lib/gcc/arm-none-eabi/4.7.1/../../../../arm-none-eabi/lib/thumb\libg.a(lib_a-difftime.o)
 .data          0x02041690        0x0 c:/users/riedle/nds/devkitpro/devkitarm/bin/../lib/gcc/arm-none-eabi/4.7.1/../../../../arm-none-eabi/lib/thumb\libg.a(lib_a-errno.o)
 .data          0x02041690        0x0 c:/users/riedle/nds/devkitpro/devkitarm/bin/../lib/gcc/arm-none-eabi/4.7.1/../../../../arm-none-eabi/lib/thumb\libg.a(lib_a-exit.o)
 .data          0x02041690        0x0 c:/users/riedle/nds/devkitpro/devkitarm/bin/../lib/gcc/arm-none-eabi/4.7.1/../../../../arm-none-eabi/lib/thumb\libg.a(lib_a-fclose.o)
 .data          0x02041690        0x0 c:/users/riedle/nds/devkitpro/devkitarm/bin/../lib/gcc/arm-none-eabi/4.7.1/../../../../arm-none-eabi/lib/thumb\libg.a(lib_a-fflush.o)
 .data          0x02041690        0x0 c:/users/riedle/nds/devkitpro/devkitarm/bin/../lib/gcc/arm-none-eabi/4.7.1/../../../../arm-none-eabi/lib/thumb\libg.a(lib_a-fgets.o)
 .data          0x02041690        0x0 c:/users/riedle/nds/devkitpro/devkitarm/bin/../lib/gcc/arm-none-eabi/4.7.1/../../../../arm-none-eabi/lib/thumb\libg.a(lib_a-findfp.o)
 .data          0x02041690        0x0 c:/users/riedle/nds/devkitpro/devkitarm/bin/../lib/gcc/arm-none-eabi/4.7.1/../../../../arm-none-eabi/lib/thumb\libg.a(lib_a-fopen.o)
 .data          0x02041690        0x0 c:/users/riedle/nds/devkitpro/devkitarm/bin/../lib/gcc/arm-none-eabi/4.7.1/../../../../arm-none-eabi/lib/thumb\libg.a(lib_a-fprintf.o)
 .data          0x02041690        0x0 c:/users/riedle/nds/devkitpro/devkitarm/bin/../lib/gcc/arm-none-eabi/4.7.1/../../../../arm-none-eabi/lib/thumb\libg.a(lib_a-fputc.o)
 .data          0x02041690        0x0 c:/users/riedle/nds/devkitpro/devkitarm/bin/../lib/gcc/arm-none-eabi/4.7.1/../../../../arm-none-eabi/lib/thumb\libg.a(lib_a-fputs.o)
 .data          0x02041690        0x0 c:/users/riedle/nds/devkitpro/devkitarm/bin/../lib/gcc/arm-none-eabi/4.7.1/../../../../arm-none-eabi/lib/thumb\libg.a(lib_a-fread.o)
 .data          0x02041690        0x0 c:/users/riedle/nds/devkitpro/devkitarm/bin/../lib/gcc/arm-none-eabi/4.7.1/../../../../arm-none-eabi/lib/thumb\libg.a(lib_a-freer.o)
 .data          0x02041690        0x0 c:/users/riedle/nds/devkitpro/devkitarm/bin/../lib/gcc/arm-none-eabi/4.7.1/../../../../arm-none-eabi/lib/thumb\libg.a(lib_a-freopen.o)
 .data          0x02041690        0x0 c:/users/riedle/nds/devkitpro/devkitarm/bin/../lib/gcc/arm-none-eabi/4.7.1/../../../../arm-none-eabi/lib/thumb\libg.a(lib_a-fscanf.o)
 .data          0x02041690        0x0 c:/users/riedle/nds/devkitpro/devkitarm/bin/../lib/gcc/arm-none-eabi/4.7.1/../../../../arm-none-eabi/lib/thumb\libg.a(lib_a-fseek.o)
 .data          0x02041690        0x0 c:/users/riedle/nds/devkitpro/devkitarm/bin/../lib/gcc/arm-none-eabi/4.7.1/../../../../arm-none-eabi/lib/thumb\libg.a(lib_a-ftell.o)
 .data          0x02041690        0x0 c:/users/riedle/nds/devkitpro/devkitarm/bin/../lib/gcc/arm-none-eabi/4.7.1/../../../../arm-none-eabi/lib/thumb\libg.a(lib_a-fvwrite.o)
 .data          0x02041690        0x0 c:/users/riedle/nds/devkitpro/devkitarm/bin/../lib/gcc/arm-none-eabi/4.7.1/../../../../arm-none-eabi/lib/thumb\libg.a(lib_a-fwalk.o)
 .data          0x02041690        0x0 c:/users/riedle/nds/devkitpro/devkitarm/bin/../lib/gcc/arm-none-eabi/4.7.1/../../../../arm-none-eabi/lib/thumb\libg.a(lib_a-fwrite.o)
 .data          0x02041690        0x0 c:/users/riedle/nds/devkitpro/devkitarm/bin/../lib/gcc/arm-none-eabi/4.7.1/../../../../arm-none-eabi/lib/thumb\libg.a(lib_a-getenv.o)
 .data          0x02041690        0x0 c:/users/riedle/nds/devkitpro/devkitarm/bin/../lib/gcc/arm-none-eabi/4.7.1/../../../../arm-none-eabi/lib/thumb\libg.a(lib_a-getenv_r.o)
 .data          0x02041690        0x0 c:/users/riedle/nds/devkitpro/devkitarm/bin/../lib/gcc/arm-none-eabi/4.7.1/../../../../arm-none-eabi/lib/thumb\libg.a(lib_a-gmtime.o)
 .data          0x02041690        0x0 c:/users/riedle/nds/devkitpro/devkitarm/bin/../lib/gcc/arm-none-eabi/4.7.1/../../../../arm-none-eabi/lib/thumb\libg.a(lib_a-gmtime_r.o)
 .data          0x02041690      0x430 c:/users/riedle/nds/devkitpro/devkitarm/bin/../lib/gcc/arm-none-eabi/4.7.1/../../../../arm-none-eabi/lib/thumb\libg.a(lib_a-impure.o)
                0x02041690                _impure_ptr
 .data          0x02041ac0        0x0 c:/users/riedle/nds/devkitpro/devkitarm/bin/../lib/gcc/arm-none-eabi/4.7.1/../../../../arm-none-eabi/lib/thumb\libg.a(lib_a-init.o)
 .data          0x02041ac0        0x0 c:/users/riedle/nds/devkitpro/devkitarm/bin/../lib/gcc/arm-none-eabi/4.7.1/../../../../arm-none-eabi/lib/thumb\libg.a(lib_a-iprintf.o)
 .data          0x02041ac0        0x0 c:/users/riedle/nds/devkitpro/devkitarm/bin/../lib/gcc/arm-none-eabi/4.7.1/../../../../arm-none-eabi/lib/thumb\libg.a(lib_a-lcltime.o)
 .data          0x02041ac0        0x0 c:/users/riedle/nds/devkitpro/devkitarm/bin/../lib/gcc/arm-none-eabi/4.7.1/../../../../arm-none-eabi/lib/thumb\libg.a(lib_a-lcltime_r.o)
 .data          0x02041ac0      0x17c c:/users/riedle/nds/devkitpro/devkitarm/bin/../lib/gcc/arm-none-eabi/4.7.1/../../../../arm-none-eabi/lib/thumb\libg.a(lib_a-locale.o)
                0x02041ac0                __default_locale
                0x02041be0                __mb_cur_max
 .data          0x02041c3c        0x0 c:/users/riedle/nds/devkitpro/devkitarm/bin/../lib/gcc/arm-none-eabi/4.7.1/../../../../arm-none-eabi/lib/thumb\libg.a(lib_a-makebuf.o)
 .data          0x02041c3c        0x0 c:/users/riedle/nds/devkitpro/devkitarm/bin/../lib/gcc/arm-none-eabi/4.7.1/../../../../arm-none-eabi/lib/thumb\libg.a(lib_a-malloc.o)
 .data          0x02041c3c      0x410 c:/users/riedle/nds/devkitpro/devkitarm/bin/../lib/gcc/arm-none-eabi/4.7.1/../../../../arm-none-eabi/lib/thumb\libg.a(lib_a-mallocr.o)
                0x02041c3c                __malloc_av_
                0x02042044                __malloc_sbrk_base
                0x02042048                __malloc_trim_threshold
 .data          0x0204204c        0x4 c:/users/riedle/nds/devkitpro/devkitarm/bin/../lib/gcc/arm-none-eabi/4.7.1/../../../../arm-none-eabi/lib/thumb\libg.a(lib_a-mbtowc_r.o)
                0x0204204c                __mbtowc
 .data          0x02042050        0x0 c:/users/riedle/nds/devkitpro/devkitarm/bin/../lib/gcc/arm-none-eabi/4.7.1/../../../../arm-none-eabi/lib/thumb\libg.a(lib_a-memchr-stub.o)
 .data          0x02042050        0x0 c:/users/riedle/nds/devkitpro/devkitarm/bin/../lib/gcc/arm-none-eabi/4.7.1/../../../../arm-none-eabi/lib/thumb\libg.a(lib_a-memcmp.o)
 .data          0x02042050        0x0 c:/users/riedle/nds/devkitpro/devkitarm/bin/../lib/gcc/arm-none-eabi/4.7.1/../../../../arm-none-eabi/lib/thumb\libg.a(lib_a-memcpy-stub.o)
 .data          0x02042050        0x0 c:/users/riedle/nds/devkitpro/devkitarm/bin/../lib/gcc/arm-none-eabi/4.7.1/../../../../arm-none-eabi/lib/thumb\libg.a(lib_a-memmove.o)
 .data          0x02042050        0x0 c:/users/riedle/nds/devkitpro/devkitarm/bin/../lib/gcc/arm-none-eabi/4.7.1/../../../../arm-none-eabi/lib/thumb\libg.a(lib_a-memset.o)
 .data          0x02042050        0x0 c:/users/riedle/nds/devkitpro/devkitarm/bin/../lib/gcc/arm-none-eabi/4.7.1/../../../../arm-none-eabi/lib/thumb\libg.a(lib_a-mktime.o)
 .data          0x02042050        0x0 c:/users/riedle/nds/devkitpro/devkitarm/bin/../lib/gcc/arm-none-eabi/4.7.1/../../../../arm-none-eabi/lib/thumb\libg.a(lib_a-mktm_r.o)
 .data          0x02042050        0x0 c:/users/riedle/nds/devkitpro/devkitarm/bin/../lib/gcc/arm-none-eabi/4.7.1/../../../../arm-none-eabi/lib/thumb\libg.a(lib_a-mlock.o)
 .data          0x02042050        0x0 c:/users/riedle/nds/devkitpro/devkitarm/bin/../lib/gcc/arm-none-eabi/4.7.1/../../../../arm-none-eabi/lib/thumb\libg.a(lib_a-printf.o)
 .data          0x02042050        0x0 c:/users/riedle/nds/devkitpro/devkitarm/bin/../lib/gcc/arm-none-eabi/4.7.1/../../../../arm-none-eabi/lib/thumb\libg.a(lib_a-putc.o)
 .data          0x02042050        0x0 c:/users/riedle/nds/devkitpro/devkitarm/bin/../lib/gcc/arm-none-eabi/4.7.1/../../../../arm-none-eabi/lib/thumb\libg.a(lib_a-rand.o)
 .data          0x02042050        0x0 c:/users/riedle/nds/devkitpro/devkitarm/bin/../lib/gcc/arm-none-eabi/4.7.1/../../../../arm-none-eabi/lib/thumb\libg.a(lib_a-realloc.o)
 .data          0x02042050        0x0 c:/users/riedle/nds/devkitpro/devkitarm/bin/../lib/gcc/arm-none-eabi/4.7.1/../../../../arm-none-eabi/lib/thumb\libg.a(lib_a-reallocr.o)
 .data          0x02042050        0x0 c:/users/riedle/nds/devkitpro/devkitarm/bin/../lib/gcc/arm-none-eabi/4.7.1/../../../../arm-none-eabi/lib/thumb\libg.a(lib_a-refill.o)
 .data          0x02042050        0x0 c:/users/riedle/nds/devkitpro/devkitarm/bin/../lib/gcc/arm-none-eabi/4.7.1/../../../../arm-none-eabi/lib/thumb\libg.a(lib_a-remove.o)
 .data          0x02042050        0x0 c:/users/riedle/nds/devkitpro/devkitarm/bin/../lib/gcc/arm-none-eabi/4.7.1/../../../../arm-none-eabi/lib/thumb\libg.a(lib_a-rename.o)
 .data          0x02042050        0x0 c:/users/riedle/nds/devkitpro/devkitarm/bin/../lib/gcc/arm-none-eabi/4.7.1/../../../../arm-none-eabi/lib/thumb\libg.a(lib_a-rget.o)
 .data          0x02042050        0x0 c:/users/riedle/nds/devkitpro/devkitarm/bin/../lib/gcc/arm-none-eabi/4.7.1/../../../../arm-none-eabi/lib/thumb\libg.a(lib_a-setjmp.o)
 .data          0x02042050        0x0 c:/users/riedle/nds/devkitpro/devkitarm/bin/../lib/gcc/arm-none-eabi/4.7.1/../../../../arm-none-eabi/lib/thumb\libg.a(lib_a-setvbuf.o)
 .data          0x02042050        0x0 c:/users/riedle/nds/devkitpro/devkitarm/bin/../lib/gcc/arm-none-eabi/4.7.1/../../../../arm-none-eabi/lib/thumb\libg.a(lib_a-signal.o)
 .data          0x02042050        0x0 c:/users/riedle/nds/devkitpro/devkitarm/bin/../lib/gcc/arm-none-eabi/4.7.1/../../../../arm-none-eabi/lib/thumb\libg.a(lib_a-siscanf.o)
 .data          0x02042050        0x0 c:/users/riedle/nds/devkitpro/devkitarm/bin/../lib/gcc/arm-none-eabi/4.7.1/../../../../arm-none-eabi/lib/thumb\libg.a(lib_a-sprintf.o)
 .data          0x02042050        0x0 c:/users/riedle/nds/devkitpro/devkitarm/bin/../lib/gcc/arm-none-eabi/4.7.1/../../../../arm-none-eabi/lib/thumb\libg.a(lib_a-stdio.o)
 .data          0x02042050        0x0 c:/users/riedle/nds/devkitpro/devkitarm/bin/../lib/gcc/arm-none-eabi/4.7.1/../../../../arm-none-eabi/lib/thumb\libg.a(lib_a-strcasecmp.o)
 .data          0x02042050        0x0 c:/users/riedle/nds/devkitpro/devkitarm/bin/../lib/gcc/arm-none-eabi/4.7.1/../../../../arm-none-eabi/lib/thumb\libg.a(lib_a-strcat.o)
 .data          0x02042050        0x0 c:/users/riedle/nds/devkitpro/devkitarm/bin/../lib/gcc/arm-none-eabi/4.7.1/../../../../arm-none-eabi/lib/thumb\libg.a(lib_a-strchr.o)
 .data          0x02042050        0x0 c:/users/riedle/nds/devkitpro/devkitarm/bin/../lib/gcc/arm-none-eabi/4.7.1/../../../../arm-none-eabi/lib/thumb\libg.a(lib_a-strcmp.o)
 .data          0x02042050        0x0 c:/users/riedle/nds/devkitpro/devkitarm/bin/../lib/gcc/arm-none-eabi/4.7.1/../../../../arm-none-eabi/lib/thumb\libg.a(lib_a-strcoll.o)
 .data          0x02042050        0x0 c:/users/riedle/nds/devkitpro/devkitarm/bin/../lib/gcc/arm-none-eabi/4.7.1/../../../../arm-none-eabi/lib/thumb\libg.a(lib_a-strcpy.o)
 .data          0x02042050        0x0 c:/users/riedle/nds/devkitpro/devkitarm/bin/../lib/gcc/arm-none-eabi/4.7.1/../../../../arm-none-eabi/lib/thumb\libg.a(lib_a-strerror.o)
 .data          0x02042050        0x0 c:/users/riedle/nds/devkitpro/devkitarm/bin/../lib/gcc/arm-none-eabi/4.7.1/../../../../arm-none-eabi/lib/thumb\libg.a(lib_a-strftime.o)
 .data          0x02042050        0x0 c:/users/riedle/nds/devkitpro/devkitarm/bin/../lib/gcc/arm-none-eabi/4.7.1/../../../../arm-none-eabi/lib/thumb\libg.a(lib_a-strlcpy.o)
 .data          0x02042050        0x0 c:/users/riedle/nds/devkitpro/devkitarm/bin/../lib/gcc/arm-none-eabi/4.7.1/../../../../arm-none-eabi/lib/thumb\libg.a(lib_a-strlen.o)
 .data          0x02042050        0x0 c:/users/riedle/nds/devkitpro/devkitarm/bin/../lib/gcc/arm-none-eabi/4.7.1/../../../../arm-none-eabi/lib/thumb\libg.a(lib_a-strncasecmp.o)
 .data          0x02042050        0x0 c:/users/riedle/nds/devkitpro/devkitarm/bin/../lib/gcc/arm-none-eabi/4.7.1/../../../../arm-none-eabi/lib/thumb\libg.a(lib_a-strncmp.o)
 .data          0x02042050        0x0 c:/users/riedle/nds/devkitpro/devkitarm/bin/../lib/gcc/arm-none-eabi/4.7.1/../../../../arm-none-eabi/lib/thumb\libg.a(lib_a-strncpy.o)
 .data          0x02042050        0x0 c:/users/riedle/nds/devkitpro/devkitarm/bin/../lib/gcc/arm-none-eabi/4.7.1/../../../../arm-none-eabi/lib/thumb\libg.a(lib_a-strpbrk.o)
 .data          0x02042050        0x0 c:/users/riedle/nds/devkitpro/devkitarm/bin/../lib/gcc/arm-none-eabi/4.7.1/../../../../arm-none-eabi/lib/thumb\libg.a(lib_a-strspn.o)
 .data          0x02042050        0x0 c:/users/riedle/nds/devkitpro/devkitarm/bin/../lib/gcc/arm-none-eabi/4.7.1/../../../../arm-none-eabi/lib/thumb\libg.a(lib_a-strstr.o)
 .data          0x02042050       0x28 c:/users/riedle/nds/devkitpro/devkitarm/bin/../lib/gcc/arm-none-eabi/4.7.1/../../../../arm-none-eabi/lib/thumb\libg.a(lib_a-strtod.o)
 .data          0x02042078        0x0 c:/users/riedle/nds/devkitpro/devkitarm/bin/../lib/gcc/arm-none-eabi/4.7.1/../../../../arm-none-eabi/lib/thumb\libg.a(lib_a-strtol.o)
 .data          0x02042078        0x0 c:/users/riedle/nds/devkitpro/devkitarm/bin/../lib/gcc/arm-none-eabi/4.7.1/../../../../arm-none-eabi/lib/thumb\libg.a(lib_a-strtoul.o)
 .data          0x02042078        0x0 c:/users/riedle/nds/devkitpro/devkitarm/bin/../lib/gcc/arm-none-eabi/4.7.1/../../../../arm-none-eabi/lib/thumb\libg.a(lib_a-svfiscanf.o)
 .data          0x02042078        0x0 c:/users/riedle/nds/devkitpro/devkitarm/bin/../lib/gcc/arm-none-eabi/4.7.1/../../../../arm-none-eabi/lib/thumb\libg.a(lib_a-svfprintf.o)
 .data          0x02042078        0x0 c:/users/riedle/nds/devkitpro/devkitarm/bin/../lib/gcc/arm-none-eabi/4.7.1/../../../../arm-none-eabi/lib/thumb\libg.a(lib_a-system.o)
 .data          0x02042078        0x0 c:/users/riedle/nds/devkitpro/devkitarm/bin/../lib/gcc/arm-none-eabi/4.7.1/../../../../arm-none-eabi/lib/thumb\libg.a(lib_a-syswrite.o)
 .data          0x02042078        0x0 c:/users/riedle/nds/devkitpro/devkitarm/bin/../lib/gcc/arm-none-eabi/4.7.1/../../../../arm-none-eabi/lib/thumb\libg.a(lib_a-timelocal.o)
 .data          0x02042078        0x0 c:/users/riedle/nds/devkitpro/devkitarm/bin/../lib/gcc/arm-none-eabi/4.7.1/../../../../arm-none-eabi/lib/thumb\libg.a(lib_a-time.o)
 .data          0x02042078        0x0 c:/users/riedle/nds/devkitpro/devkitarm/bin/../lib/gcc/arm-none-eabi/4.7.1/../../../../arm-none-eabi/lib/thumb\libg.a(lib_a-tmpfile.o)
 .data          0x02042078        0x0 c:/users/riedle/nds/devkitpro/devkitarm/bin/../lib/gcc/arm-none-eabi/4.7.1/../../../../arm-none-eabi/lib/thumb\libg.a(lib_a-tmpnam.o)
 .data          0x02042078        0x0 c:/users/riedle/nds/devkitpro/devkitarm/bin/../lib/gcc/arm-none-eabi/4.7.1/../../../../arm-none-eabi/lib/thumb\libg.a(lib_a-tzlock.o)
 .data          0x02042078        0x8 c:/users/riedle/nds/devkitpro/devkitarm/bin/../lib/gcc/arm-none-eabi/4.7.1/../../../../arm-none-eabi/lib/thumb\libg.a(lib_a-tzvars.o)
                0x02042078                _tzname
 .data          0x02042080        0x0 c:/users/riedle/nds/devkitpro/devkitarm/bin/../lib/gcc/arm-none-eabi/4.7.1/../../../../arm-none-eabi/lib/thumb\libg.a(lib_a-ungetc.o)
 .data          0x02042080        0x0 c:/users/riedle/nds/devkitpro/devkitarm/bin/../lib/gcc/arm-none-eabi/4.7.1/../../../../arm-none-eabi/lib/thumb\libg.a(lib_a-u_strerr.o)
 .data          0x02042080        0x0 c:/users/riedle/nds/devkitpro/devkitarm/bin/../lib/gcc/arm-none-eabi/4.7.1/../../../../arm-none-eabi/lib/thumb\libg.a(lib_a-vfiprintf.o)
 .data          0x02042080        0x0 c:/users/riedle/nds/devkitpro/devkitarm/bin/../lib/gcc/arm-none-eabi/4.7.1/../../../../arm-none-eabi/lib/thumb\libg.a(lib_a-vfprintf.o)
 .data          0x02042080        0x0 c:/users/riedle/nds/devkitpro/devkitarm/bin/../lib/gcc/arm-none-eabi/4.7.1/../../../../arm-none-eabi/lib/thumb\libg.a(lib_a-vfscanf.o)
 .data          0x02042080        0x0 c:/users/riedle/nds/devkitpro/devkitarm/bin/../lib/gcc/arm-none-eabi/4.7.1/../../../../arm-none-eabi/lib/thumb\libg.a(lib_a-wbuf.o)
 .data          0x02042080        0x0 c:/users/riedle/nds/devkitpro/devkitarm/bin/../lib/gcc/arm-none-eabi/4.7.1/../../../../arm-none-eabi/lib/thumb\libg.a(lib_a-wcrtomb.o)
 .data          0x02042080        0x0 c:/users/riedle/nds/devkitpro/devkitarm/bin/../lib/gcc/arm-none-eabi/4.7.1/../../../../arm-none-eabi/lib/thumb\libg.a(lib_a-wcsrtombs.o)
 .data          0x02042080        0x4 c:/users/riedle/nds/devkitpro/devkitarm/bin/../lib/gcc/arm-none-eabi/4.7.1/../../../../arm-none-eabi/lib/thumb\libg.a(lib_a-wctomb_r.o)
                0x02042080                __wctomb
 .data          0x02042084        0x0 c:/users/riedle/nds/devkitpro/devkitarm/bin/../lib/gcc/arm-none-eabi/4.7.1/../../../../arm-none-eabi/lib/thumb\libg.a(lib_a-wsetup.o)
 .data          0x02042084        0x0 c:/users/riedle/nds/devkitpro/devkitarm/bin/../lib/gcc/arm-none-eabi/4.7.1/../../../../arm-none-eabi/lib/thumb\libg.a(lib_a-abs.o)
 .data          0x02042084        0x0 c:/users/riedle/nds/devkitpro/devkitarm/bin/../lib/gcc/arm-none-eabi/4.7.1/../../../../arm-none-eabi/lib/thumb\libg.a(lib_a-__call_atexit.o)
 .data          0x02042084        0x0 c:/users/riedle/nds/devkitpro/devkitarm/bin/../lib/gcc/arm-none-eabi/4.7.1/../../../../arm-none-eabi/lib/thumb\libg.a(lib_a-div.o)
 .data          0x02042084        0x0 c:/users/riedle/nds/devkitpro/devkitarm/bin/../lib/gcc/arm-none-eabi/4.7.1/../../../../arm-none-eabi/lib/thumb\libg.a(lib_a-dtoa.o)
 .data          0x02042084        0x4 c:/users/riedle/nds/devkitpro/devkitarm/bin/../lib/gcc/arm-none-eabi/4.7.1/../../../../arm-none-eabi/lib/thumb\libg.a(lib_a-environ.o)
                0x02042084                environ
 .data          0x02042088        0x0 c:/users/riedle/nds/devkitpro/devkitarm/bin/../lib/gcc/arm-none-eabi/4.7.1/../../../../arm-none-eabi/lib/thumb\libg.a(lib_a-envlock.o)
 .data          0x02042088        0x0 c:/users/riedle/nds/devkitpro/devkitarm/bin/../lib/gcc/arm-none-eabi/4.7.1/../../../../arm-none-eabi/lib/thumb\libg.a(lib_a-fdopen.o)
 .data          0x02042088        0x0 c:/users/riedle/nds/devkitpro/devkitarm/bin/../lib/gcc/arm-none-eabi/4.7.1/../../../../arm-none-eabi/lib/thumb\libg.a(lib_a-flags.o)
 .data          0x02042088        0x0 c:/users/riedle/nds/devkitpro/devkitarm/bin/../lib/gcc/arm-none-eabi/4.7.1/../../../../arm-none-eabi/lib/thumb\libg.a(lib_a-fputwc.o)
 .data          0x02042088        0x0 c:/users/riedle/nds/devkitpro/devkitarm/bin/../lib/gcc/arm-none-eabi/4.7.1/../../../../arm-none-eabi/lib/thumb\libg.a(lib_a-gdtoa-gethex.o)
 .data          0x02042088        0x0 c:/users/riedle/nds/devkitpro/devkitarm/bin/../lib/gcc/arm-none-eabi/4.7.1/../../../../arm-none-eabi/lib/thumb\libg.a(lib_a-gdtoa-hexnan.o)
 .data          0x02042088       0x40 c:/users/riedle/nds/devkitpro/devkitarm/bin/../lib/gcc/arm-none-eabi/4.7.1/../../../../arm-none-eabi/lib/thumb\libg.a(lib_a-gettzinfo.o)
 .data          0x020420c8        0x0 c:/users/riedle/nds/devkitpro/devkitarm/bin/../lib/gcc/arm-none-eabi/4.7.1/../../../../arm-none-eabi/lib/thumb\libg.a(lib_a-iswspace.o)
 .data          0x020420c8        0x0 c:/users/riedle/nds/devkitpro/devkitarm/bin/../lib/gcc/arm-none-eabi/4.7.1/../../../../arm-none-eabi/lib/thumb\libg.a(lib_a-jp2uc.o)
 .data          0x020420c8        0x0 c:/users/riedle/nds/devkitpro/devkitarm/bin/../lib/gcc/arm-none-eabi/4.7.1/../../../../arm-none-eabi/lib/thumb\libg.a(lib_a-labs.o)
 .data          0x020420c8        0x4 c:/users/riedle/nds/devkitpro/devkitarm/bin/../lib/gcc/arm-none-eabi/4.7.1/../../../../arm-none-eabi/lib/thumb\libg.a(lib_a-ldpart.o)
 .data          0x020420cc        0x0 c:/users/riedle/nds/devkitpro/devkitarm/bin/../lib/gcc/arm-none-eabi/4.7.1/../../../../arm-none-eabi/lib/thumb\libg.a(lib_a-mbrtowc.o)
 .data          0x020420cc        0x0 c:/users/riedle/nds/devkitpro/devkitarm/bin/../lib/gcc/arm-none-eabi/4.7.1/../../../../arm-none-eabi/lib/thumb\libg.a(lib_a-mprec.o)
 .data          0x020420cc        0x0 c:/users/riedle/nds/devkitpro/devkitarm/bin/../lib/gcc/arm-none-eabi/4.7.1/../../../../arm-none-eabi/lib/thumb\libg.a(lib_a-sccl.o)
 .data          0x020420cc        0x0 c:/users/riedle/nds/devkitpro/devkitarm/bin/../lib/gcc/arm-none-eabi/4.7.1/../../../../arm-none-eabi/lib/thumb\libg.a(lib_a-sf_nan.o)
 .data          0x020420cc        0x0 c:/users/riedle/nds/devkitpro/devkitarm/bin/../lib/gcc/arm-none-eabi/4.7.1/../../../../arm-none-eabi/lib/thumb\libg.a(lib_a-sniprintf.o)
 .data          0x020420cc        0x0 c:/users/riedle/nds/devkitpro/devkitarm/bin/../lib/gcc/arm-none-eabi/4.7.1/../../../../arm-none-eabi/lib/thumb\libg.a(lib_a-strtoll_r.o)
 .data          0x020420cc        0x0 c:/users/riedle/nds/devkitpro/devkitarm/bin/../lib/gcc/arm-none-eabi/4.7.1/../../../../arm-none-eabi/lib/thumb\libg.a(lib_a-strtoull_r.o)
 .data          0x020420cc        0x0 c:/users/riedle/nds/devkitpro/devkitarm/bin/../lib/gcc/arm-none-eabi/4.7.1/../../../../arm-none-eabi/lib/thumb\libg.a(lib_a-svfiprintf.o)
 .data          0x020420cc        0x0 c:/users/riedle/nds/devkitpro/devkitarm/bin/../lib/gcc/arm-none-eabi/4.7.1/../../../../arm-none-eabi/lib/thumb\libg.a(lib_a-sysclose.o)
 .data          0x020420cc        0x0 c:/users/riedle/nds/devkitpro/devkitarm/bin/../lib/gcc/arm-none-eabi/4.7.1/../../../../arm-none-eabi/lib/thumb\libg.a(lib_a-sysfstat.o)
 .data          0x020420cc        0x0 c:/users/riedle/nds/devkitpro/devkitarm/bin/../lib/gcc/arm-none-eabi/4.7.1/../../../../arm-none-eabi/lib/thumb\libg.a(lib_a-sysopen.o)
 .data          0x020420cc        0x0 c:/users/riedle/nds/devkitpro/devkitarm/bin/../lib/gcc/arm-none-eabi/4.7.1/../../../../arm-none-eabi/lib/thumb\libg.a(lib_a-sysread.o)
 .data          0x020420cc        0x0 c:/users/riedle/nds/devkitpro/devkitarm/bin/../lib/gcc/arm-none-eabi/4.7.1/../../../../arm-none-eabi/lib/thumb\libg.a(lib_a-wcsnrtombs.o)
 .data          0x020420cc        0x0 c:/users/riedle/nds/devkitpro/devkitarm/bin/../lib/gcc/arm-none-eabi/4.7.1/../../../../arm-none-eabi/lib/thumb\libg.a(lib_a-callocr.o)
 .data          0x020420cc       0x44 c:/users/riedle/nds/devkitpro/devkitarm/bin/../lib/gcc/arm-none-eabi/4.7.1/../../../../arm-none-eabi/lib/thumb\libsysbase.a(iosupport.o)
                0x020420d0                devoptab_list
 .data          0x02042110        0x0 c:/users/riedle/nds/devkitpro/devkitarm/bin/../lib/gcc/arm-none-eabi/4.7.1/../../../../arm-none-eabi/lib/thumb\libsysbase.a(close.o)
 .data          0x02042110        0x0 c:/users/riedle/nds/devkitpro/devkitarm/bin/../lib/gcc/arm-none-eabi/4.7.1/../../../../arm-none-eabi/lib/thumb\libsysbase.a(fstat.o)
 .data          0x02042110        0x0 c:/users/riedle/nds/devkitpro/devkitarm/bin/../lib/gcc/arm-none-eabi/4.7.1/../../../../arm-none-eabi/lib/thumb\libsysbase.a(getpid.o)
 .data          0x02042110        0x0 c:/users/riedle/nds/devkitpro/devkitarm/bin/../lib/gcc/arm-none-eabi/4.7.1/../../../../arm-none-eabi/lib/thumb\libsysbase.a(isatty.o)
 .data          0x02042110        0x0 c:/users/riedle/nds/devkitpro/devkitarm/bin/../lib/gcc/arm-none-eabi/4.7.1/../../../../arm-none-eabi/lib/thumb\libsysbase.a(kill.o)
 .data          0x02042110        0x0 c:/users/riedle/nds/devkitpro/devkitarm/bin/../lib/gcc/arm-none-eabi/4.7.1/../../../../arm-none-eabi/lib/thumb\libsysbase.a(lseek.o)
 .data          0x02042110        0x0 c:/users/riedle/nds/devkitpro/devkitarm/bin/../lib/gcc/arm-none-eabi/4.7.1/../../../../arm-none-eabi/lib/thumb\libsysbase.a(open.o)
 .data          0x02042110        0x0 c:/users/riedle/nds/devkitpro/devkitarm/bin/../lib/gcc/arm-none-eabi/4.7.1/../../../../arm-none-eabi/lib/thumb\libsysbase.a(read.o)
 .data          0x02042110        0x0 c:/users/riedle/nds/devkitpro/devkitarm/bin/../lib/gcc/arm-none-eabi/4.7.1/../../../../arm-none-eabi/lib/thumb\libsysbase.a(sbrk.o)
 .data          0x02042110        0x0 c:/users/riedle/nds/devkitpro/devkitarm/bin/../lib/gcc/arm-none-eabi/4.7.1/../../../../arm-none-eabi/lib/thumb\libsysbase.a(times.o)
 .data          0x02042110        0x0 c:/users/riedle/nds/devkitpro/devkitarm/bin/../lib/gcc/arm-none-eabi/4.7.1/../../../../arm-none-eabi/lib/thumb\libsysbase.a(unlink.o)
 .data          0x02042110        0x0 c:/users/riedle/nds/devkitpro/devkitarm/bin/../lib/gcc/arm-none-eabi/4.7.1/../../../../arm-none-eabi/lib/thumb\libsysbase.a(write.o)
 .data          0x02042110        0x0 c:/users/riedle/nds/devkitpro/devkitarm/bin/../lib/gcc/arm-none-eabi/4.7.1/../../../../arm-none-eabi/lib/thumb\libsysbase.a(_exit.o)
 .data          0x02042110        0x0 c:/users/riedle/nds/devkitpro/devkitarm/bin/../lib/gcc/arm-none-eabi/4.7.1/../../../../arm-none-eabi/lib/thumb\libsysbase.a(malloc_vars.o)
 .data          0x02042110        0x0 c:/users/riedle/nds/devkitpro/devkitarm/bin/../lib/gcc/arm-none-eabi/4.7.1/../../../../arm-none-eabi/lib/thumb\libsysbase.a(rename.o)
 .data          0x02042110        0x0 c:/users/riedle/nds/devkitpro/devkitarm/bin/../lib/gcc/arm-none-eabi/4.7.1/../../../../arm-none-eabi/lib/thumb\libsysbase.a(build_argv.o)
 .data          0x02042110        0x0 c:/users/riedle/nds/devkitpro/devkitarm/bin/../lib/gcc/arm-none-eabi/4.7.1/../../../../arm-none-eabi/lib/thumb\libsysbase.a(syscall_support.o)
 .data          0x02042110        0x0 c:/users/riedle/nds/devkitpro/devkitarm/bin/../lib/gcc/arm-none-eabi/4.7.1/../../../../arm-none-eabi/lib/thumb\libsysbase.a(handle_manager.o)
 .data          0x02042110        0x0 c:/users/riedle/nds/devkitpro/devkitarm/bin/../lib/gcc/arm-none-eabi/4.7.1/thumb\libgcc.a(_arm_truncdfsf2.o)
 .data          0x02042110        0x0 c:/users/riedle/nds/devkitpro/devkitarm/bin/../lib/gcc/arm-none-eabi/4.7.1/thumb\libgcc.a(_aeabi_uldivmod.o)
 .data          0x02042110        0x0 c:/users/riedle/nds/devkitpro/devkitarm/bin/../lib/gcc/arm-none-eabi/4.7.1/thumb\libgcc.a(_muldi3.o)
 .data          0x02042110        0x0 c:/users/riedle/nds/devkitpro/devkitarm/bin/../lib/gcc/arm-none-eabi/4.7.1/thumb\libgcc.a(bpabi.o)
 .data          0x02042110        0x0 c:/users/riedle/nds/devkitpro/devkitarm/bin/../lib/gcc/arm-none-eabi/4.7.1/thumb\libgcc.a(_divdi3.o)
 .data          0x02042110        0x0 c:/users/riedle/nds/devkitpro/devkitarm/bin/../lib/gcc/arm-none-eabi/4.7.1/thumb\libgcc.a(_udivdi3.o)
 .data          0x02042110        0x0 c:/users/riedle/nds/devkitpro/devkitarm/bin/../lib/gcc/arm-none-eabi/4.7.1/thumb\libgcc.a(_clzsi2.o)
 .data          0x02042110        0x0 c:/users/riedle/nds/devkitpro/devkitarm/bin/../lib/gcc/arm-none-eabi/4.7.1/thumb/crtend.o
 .data          0x02042110        0x0 c:/users/riedle/nds/devkitpro/devkitarm/bin/../lib/gcc/arm-none-eabi/4.7.1/thumb/crtn.o
 *(.data.*)
 .data._ZN10__cxxabiv120__unexpected_handlerE
                0x02042110        0x4 c:/users/riedle/nds/devkitpro/devkitarm/bin/../lib/gcc/arm-none-eabi/4.7.1/../../../../arm-none-eabi/lib/thumb\libstdc++.a(eh_unex_handler.o)
                0x02042110                __cxxabiv1::__unexpected_handler
 .data._ZN10__cxxabiv119__terminate_handlerE
                0x02042114        0x4 c:/users/riedle/nds/devkitpro/devkitarm/bin/../lib/gcc/arm-none-eabi/4.7.1/../../../../arm-none-eabi/lib/thumb\libstdc++.a(eh_term_handler.o)
                0x02042114                __cxxabiv1::__terminate_handler
 *(.gnu.linkonce.d*)
                0x02042118                . = ALIGN (0x4)
                0x02042118                __data_end = ABSOLUTE (.)
                0x02042118                __dtcm_lma = .
                0x02042118                __bss_vma = .

.igot.plt       0x02042118        0x0
 .igot.plt      0x00000000        0x0 c:/users/riedle/nds/devkitpro/devkitarm/bin/../lib/gcc/arm-none-eabi/4.7.1/../../../../arm-none-eabi/lib/thumb/ds_arm9_crt0.o

.tm_clone_table
                0x02042118        0x0
 .tm_clone_table
                0x02042118        0x0 c:/users/riedle/nds/devkitpro/devkitarm/bin/../lib/gcc/arm-none-eabi/4.7.1/thumb/crtbegin.o
 .tm_clone_table
                0x02042118        0x0 c:/users/riedle/nds/devkitpro/devkitarm/bin/../lib/gcc/arm-none-eabi/4.7.1/thumb/crtend.o

.dtcm           0x0b000000        0x0 load address 0x02042118
 *(.dtcm)
 *(.dtcm.*)
                0x0b000000                . = ALIGN (0x4)
                0x0b000000                __dtcm_end = ABSOLUTE (.)
                0x02042118                __itcm_lma = (__dtcm_lma + SIZEOF (.dtcm))

.itcm           0x01000100      0x194 load address 0x02042118
 *(.itcm)
 .itcm          0x01000100       0xc8 c:/Users/riedle/NDS/DEVKITPRO/libnds/lib\libnds9.a(interrupts.o)
                0x01000100                irqTable
 .itcm          0x010001c8       0xcc c:/Users/riedle/NDS/DEVKITPRO/libnds/lib\libnds9.a(interruptDispatcher.o)
                0x010001c8                IntrMain
 *itcm.*(.text)
                0x01000294                . = ALIGN (0x4)
                0x01000294                __itcm_end = ABSOLUTE (.)
                0x020422ac                __vectors_lma = (__itcm_lma + SIZEOF (.itcm))

.vectors        0x01000000        0x0 load address 0x020422ac
 *(.vectors)
 *vectors.*(.text)
                0x01000000                . = ALIGN (0x4)
                0x01000000                __vectors_end = ABSOLUTE (.)

.sbss           0x0b000000        0x0
                0x0b000000                __sbss_start = ABSOLUTE (.)
                0x0b000000                __sbss_start__ = ABSOLUTE (.)
 *(.sbss)
                0x0b000000                . = ALIGN (0x4)
                0x0b000000                __sbss_end = ABSOLUTE (.)

.bss            0x02042118     0x2b3c
                0x02042118                __bss_start = ABSOLUTE (.)
                0x02042118                __bss_start__ = ABSOLUTE (.)
 *(.dynbss)
 *(.gnu.linkonce.b*)
 *(.bss*)
 .bss           0x02042118        0x0 c:/users/riedle/nds/devkitpro/devkitarm/bin/../lib/gcc/arm-none-eabi/4.7.1/../../../../arm-none-eabi/lib/thumb/ds_arm9_crt0.o
 .bss           0x02042118        0x0 c:/users/riedle/nds/devkitpro/devkitarm/bin/../lib/gcc/arm-none-eabi/4.7.1/thumb/crti.o
 .bss           0x02042118       0x1c c:/users/riedle/nds/devkitpro/devkitarm/bin/../lib/gcc/arm-none-eabi/4.7.1/thumb/crtbegin.o
 .bss           0x02042134       0x14 main.o
                0x02042134                object::Properties
 .bss           0x02042148        0x0 lapi.o
 .bss           0x02042148        0x0 lauxlib.o
 .bss           0x02042148        0x0 lbaselib.o
 .bss           0x02042148        0x0 lbitlib.o
 .bss           0x02042148        0x0 lcode.o
 .bss           0x02042148        0x0 lcorolib.o
 .bss           0x02042148        0x0 lctype.o
 .bss           0x02042148        0x0 ldblib.o
 .bss           0x02042148        0x0 ldebug.o
 .bss           0x02042148        0x0 ldo.o
 .bss           0x02042148        0x0 ldump.o
 .bss           0x02042148        0x0 lfunc.o
 .bss           0x02042148        0x0 lgc.o
 .bss           0x02042148        0x0 linit.o
 .bss           0x02042148        0x0 liolib.o
 .bss           0x02042148        0x0 llex.o
 .bss           0x02042148        0x0 lmathlib.o
 .bss           0x02042148        0x0 lmem.o
 .bss           0x02042148        0x0 loadlib.o
 .bss           0x02042148        0x0 lobject.o
 .bss           0x02042148        0x0 lopcodes.o
 .bss           0x02042148        0x0 loslib.o
 .bss           0x02042148        0x0 lparser.o
 .bss           0x02042148        0x0 lstate.o
 .bss           0x02042148        0x0 lstring.o
 .bss           0x02042148        0x0 lstrlib.o
 .bss           0x02042148        0x0 ltable.o
 .bss           0x02042148        0x0 ltablib.o
 .bss           0x02042148        0x0 ltm.o
 .bss           0x02042148        0x0 lundump.o
 .bss           0x02042148        0x0 lvm.o
 .bss           0x02042148        0x0 lzio.o
 .bss           0x02042148        0x0 c:/Users/riedle/NDS/DEVKITPRO/libnds/lib\libnds9.a(console.o)
 .bss           0x02042148        0x0 c:/Users/riedle/NDS/DEVKITPRO/libnds/lib\libnds9.a(initSystem.o)
 .bss           0x02042148        0x8 c:/Users/riedle/NDS/DEVKITPRO/libnds/lib\libnds9.a(fifosystem.o)
                0x0204214c                processing
 .bss           0x02042150        0x0 c:/Users/riedle/NDS/DEVKITPRO/libnds/lib\libnds9.a(interrupts.o)
 .bss           0x02042150        0x0 c:/Users/riedle/NDS/DEVKITPRO/libnds/lib\libnds9.a(libnds_exit.arm.o)
 .bss           0x02042150        0x0 c:/Users/riedle/NDS/DEVKITPRO/libnds/lib\libnds9.a(mpu_setup.o)
 .bss           0x02042150        0x0 c:/Users/riedle/NDS/DEVKITPRO/libnds/lib\libnds9.a(biosCalls.o)
 .bss           0x02042150        0x0 c:/Users/riedle/NDS/DEVKITPRO/libnds/lib\libnds9.a(debugprint.o)
 .bss           0x02042150        0x0 c:/Users/riedle/NDS/DEVKITPRO/libnds/lib\libnds9.a(interruptDispatcher.o)
 .bss           0x02042150        0x0 c:/Users/riedle/NDS/DEVKITPRO/libnds/lib\libnds9.a(swiSoftReset.o)
 .bss           0x02042150        0x0 c:/Users/riedle/NDS/DEVKITPRO/libnds/lib\libnds9.a(default_font.bin.o)
 .bss           0x02042150        0x0 c:/Users/riedle/NDS/DEVKITPRO/libnds/lib\libnds9.a(background.o)
 .bss           0x02042150        0x4 c:/Users/riedle/NDS/DEVKITPRO/libnds/lib\libnds9.a(system.o)
 .bss           0x02042154        0x0 c:/Users/riedle/NDS/DEVKITPRO/libnds/lib\libnds9.a(trig.o)
 .bss           0x02042154        0x0 c:/Users/riedle/NDS/DEVKITPRO/libnds/lib\libnds9.a(video.o)
 .bss           0x02042154        0x0 c:/users/riedle/nds/devkitpro/devkitarm/bin/../lib/gcc/arm-none-eabi/4.7.1/../../../../arm-none-eabi/lib/thumb\libstdc++.a(new_op.o)
 .bss           0x02042154        0x0 c:/users/riedle/nds/devkitpro/devkitarm/bin/../lib/gcc/arm-none-eabi/4.7.1/../../../../arm-none-eabi/lib/thumb\libstdc++.a(eh_call.o)
 .bss           0x02042154        0x0 c:/users/riedle/nds/devkitpro/devkitarm/bin/../lib/gcc/arm-none-eabi/4.7.1/../../../../arm-none-eabi/lib/thumb\libstdc++.a(eh_personality.o)
 .bss           0x02042154        0x0 c:/users/riedle/nds/devkitpro/devkitarm/bin/../lib/gcc/arm-none-eabi/4.7.1/../../../../arm-none-eabi/lib/thumb\libstdc++.a(del_op.o)
 .bss           0x02042154        0x0 c:/users/riedle/nds/devkitpro/devkitarm/bin/../lib/gcc/arm-none-eabi/4.7.1/../../../../arm-none-eabi/lib/thumb\libstdc++.a(eh_terminate.o)
 .bss           0x02042154        0x0 c:/users/riedle/nds/devkitpro/devkitarm/bin/../lib/gcc/arm-none-eabi/4.7.1/../../../../arm-none-eabi/lib/thumb\libstdc++.a(eh_exception.o)
 .bss           0x02042154        0x0 c:/users/riedle/nds/devkitpro/devkitarm/bin/../lib/gcc/arm-none-eabi/4.7.1/../../../../arm-none-eabi/lib/thumb\libstdc++.a(eh_alloc.o)
 .bss._ZL15dependents_used
                0x02042154        0x4 c:/users/riedle/nds/devkitpro/devkitarm/bin/../lib/gcc/arm-none-eabi/4.7.1/../../../../arm-none-eabi/lib/thumb\libstdc++.a(eh_alloc.o)
 .bss._ZL17dependents_buffer
                0x02042158      0x1e0 c:/users/riedle/nds/devkitpro/devkitarm/bin/../lib/gcc/arm-none-eabi/4.7.1/../../../../arm-none-eabi/lib/thumb\libstdc++.a(eh_alloc.o)
 .bss._ZL14emergency_used
                0x02042338        0x4 c:/users/riedle/nds/devkitpro/devkitarm/bin/../lib/gcc/arm-none-eabi/4.7.1/../../../../arm-none-eabi/lib/thumb\libstdc++.a(eh_alloc.o)
 *fill*         0x0204233c        0x4 00
 .bss._ZL16emergency_buffer
                0x02042340      0x800 c:/users/riedle/nds/devkitpro/devkitarm/bin/../lib/gcc/arm-none-eabi/4.7.1/../../../../arm-none-eabi/lib/thumb\libstdc++.a(eh_alloc.o)
 .bss           0x02042b40        0x0 c:/users/riedle/nds/devkitpro/devkitarm/bin/../lib/gcc/arm-none-eabi/4.7.1/../../../../arm-none-eabi/lib/thumb\libstdc++.a(bad_alloc.o)
 .bss           0x02042b40        0x0 c:/users/riedle/nds/devkitpro/devkitarm/bin/../lib/gcc/arm-none-eabi/4.7.1/../../../../arm-none-eabi/lib/thumb\libstdc++.a(class_type_info.o)
 .bss           0x02042b40        0x0 c:/users/riedle/nds/devkitpro/devkitarm/bin/../lib/gcc/arm-none-eabi/4.7.1/../../../../arm-none-eabi/lib/thumb\libstdc++.a(new_handler.o)
 .bss.__new_handler
                0x02042b40        0x4 c:/users/riedle/nds/devkitpro/devkitarm/bin/../lib/gcc/arm-none-eabi/4.7.1/../../../../arm-none-eabi/lib/thumb\libstdc++.a(new_handler.o)
                0x02042b40                __new_handler
 .bss           0x02042b44        0x0 c:/users/riedle/nds/devkitpro/devkitarm/bin/../lib/gcc/arm-none-eabi/4.7.1/../../../../arm-none-eabi/lib/thumb\libstdc++.a(eh_arm.o)
 .bss           0x02042b44        0x0 c:/users/riedle/nds/devkitpro/devkitarm/bin/../lib/gcc/arm-none-eabi/4.7.1/../../../../arm-none-eabi/lib/thumb\libstdc++.a(eh_throw.o)
 .bss           0x02042b44        0x0 c:/users/riedle/nds/devkitpro/devkitarm/bin/../lib/gcc/arm-none-eabi/4.7.1/../../../../arm-none-eabi/lib/thumb\libstdc++.a(pure.o)
 .bss           0x02042b44        0x0 c:/users/riedle/nds/devkitpro/devkitarm/bin/../lib/gcc/arm-none-eabi/4.7.1/../../../../arm-none-eabi/lib/thumb\libstdc++.a(eh_globals.o)
 .bss._ZL10eh_globals
                0x02042b44        0xc c:/users/riedle/nds/devkitpro/devkitarm/bin/../lib/gcc/arm-none-eabi/4.7.1/../../../../arm-none-eabi/lib/thumb\libstdc++.a(eh_globals.o)
 .bss           0x02042b50        0x0 c:/users/riedle/nds/devkitpro/devkitarm/bin/../lib/gcc/arm-none-eabi/4.7.1/../../../../arm-none-eabi/lib/thumb\libstdc++.a(eh_catch.o)
 .bss           0x02042b50        0x0 c:/users/riedle/nds/devkitpro/devkitarm/bin/../lib/gcc/arm-none-eabi/4.7.1/../../../../arm-none-eabi/lib/thumb\libstdc++.a(si_class_type_info.o)
 .bss           0x02042b50        0x0 c:/users/riedle/nds/devkitpro/devkitarm/bin/../lib/gcc/arm-none-eabi/4.7.1/../../../../arm-none-eabi/lib/thumb\libstdc++.a(eh_unex_handler.o)
 .bss           0x02042b50        0x0 c:/users/riedle/nds/devkitpro/devkitarm/bin/../lib/gcc/arm-none-eabi/4.7.1/../../../../arm-none-eabi/lib/thumb\libstdc++.a(tinfo.o)
 .bss           0x02042b50        0x0 c:/users/riedle/nds/devkitpro/devkitarm/bin/../lib/gcc/arm-none-eabi/4.7.1/../../../../arm-none-eabi/lib/thumb\libstdc++.a(eh_term_handler.o)
 .bss           0x02042b50        0x0 c:/users/riedle/nds/devkitpro/devkitarm/bin/../lib/gcc/arm-none-eabi/4.7.1/../../../../arm-none-eabi/lib/thumb\libstdc++.a(vterminate.o)
 .bss._ZZN9__gnu_cxx27__verbose_terminate_handlerEvE11terminating
                0x02042b50        0x1 c:/users/riedle/nds/devkitpro/devkitarm/bin/../lib/gcc/arm-none-eabi/4.7.1/../../../../arm-none-eabi/lib/thumb\libstdc++.a(vterminate.o)
 .bss           0x02042b51        0x0 c:/users/riedle/nds/devkitpro/devkitarm/bin/../lib/gcc/arm-none-eabi/4.7.1/../../../../arm-none-eabi/lib/thumb\libstdc++.a(eh_type.o)
 .bss           0x02042b51        0x0 c:/users/riedle/nds/devkitpro/devkitarm/bin/../lib/gcc/arm-none-eabi/4.7.1/../../../../arm-none-eabi/lib/thumb\libstdc++.a(cp-demangle.o)
 .bss           0x02042b51        0x0 c:/users/riedle/nds/devkitpro/devkitarm/bin/../lib/gcc/arm-none-eabi/4.7.1/../../../../arm-none-eabi/lib/thumb\libm.a(lib_a-s_atan.o)
 .bss           0x02042b51        0x0 c:/users/riedle/nds/devkitpro/devkitarm/bin/../lib/gcc/arm-none-eabi/4.7.1/../../../../arm-none-eabi/lib/thumb\libm.a(lib_a-s_ceil.o)
 .bss           0x02042b51        0x0 c:/users/riedle/nds/devkitpro/devkitarm/bin/../lib/gcc/arm-none-eabi/4.7.1/../../../../arm-none-eabi/lib/thumb\libm.a(lib_a-s_cos.o)
 .bss           0x02042b51        0x0 c:/users/riedle/nds/devkitpro/devkitarm/bin/../lib/gcc/arm-none-eabi/4.7.1/../../../../arm-none-eabi/lib/thumb\libm.a(lib_a-s_fabs.o)
 .bss           0x02042b51        0x0 c:/users/riedle/nds/devkitpro/devkitarm/bin/../lib/gcc/arm-none-eabi/4.7.1/../../../../arm-none-eabi/lib/thumb\libm.a(lib_a-s_floor.o)
 .bss           0x02042b51        0x0 c:/users/riedle/nds/devkitpro/devkitarm/bin/../lib/gcc/arm-none-eabi/4.7.1/../../../../arm-none-eabi/lib/thumb\libm.a(lib_a-s_frexp.o)
 .bss           0x02042b51        0x0 c:/users/riedle/nds/devkitpro/devkitarm/bin/../lib/gcc/arm-none-eabi/4.7.1/../../../../arm-none-eabi/lib/thumb\libm.a(lib_a-s_ldexp.o)
 .bss           0x02042b51        0x0 c:/users/riedle/nds/devkitpro/devkitarm/bin/../lib/gcc/arm-none-eabi/4.7.1/../../../../arm-none-eabi/lib/thumb\libm.a(lib_a-s_modf.o)
 .bss           0x02042b51        0x0 c:/users/riedle/nds/devkitpro/devkitarm/bin/../lib/gcc/arm-none-eabi/4.7.1/../../../../arm-none-eabi/lib/thumb\libm.a(lib_a-s_scalbn.o)
 .bss           0x02042b51        0x0 c:/users/riedle/nds/devkitpro/devkitarm/bin/../lib/gcc/arm-none-eabi/4.7.1/../../../../arm-none-eabi/lib/thumb\libm.a(lib_a-s_sin.o)
 .bss           0x02042b51        0x0 c:/users/riedle/nds/devkitpro/devkitarm/bin/../lib/gcc/arm-none-eabi/4.7.1/../../../../arm-none-eabi/lib/thumb\libm.a(lib_a-s_tanh.o)
 .bss           0x02042b51        0x0 c:/users/riedle/nds/devkitpro/devkitarm/bin/../lib/gcc/arm-none-eabi/4.7.1/../../../../arm-none-eabi/lib/thumb\libm.a(lib_a-s_tan.o)
 .bss           0x02042b51        0x0 c:/users/riedle/nds/devkitpro/devkitarm/bin/../lib/gcc/arm-none-eabi/4.7.1/../../../../arm-none-eabi/lib/thumb\libm.a(lib_a-w_acos.o)
 .bss           0x02042b51        0x0 c:/users/riedle/nds/devkitpro/devkitarm/bin/../lib/gcc/arm-none-eabi/4.7.1/../../../../arm-none-eabi/lib/thumb\libm.a(lib_a-w_asin.o)
 .bss           0x02042b51        0x0 c:/users/riedle/nds/devkitpro/devkitarm/bin/../lib/gcc/arm-none-eabi/4.7.1/../../../../arm-none-eabi/lib/thumb\libm.a(lib_a-w_atan2.o)
 .bss           0x02042b51        0x0 c:/users/riedle/nds/devkitpro/devkitarm/bin/../lib/gcc/arm-none-eabi/4.7.1/../../../../arm-none-eabi/lib/thumb\libm.a(lib_a-w_cosh.o)
 .bss           0x02042b51        0x0 c:/users/riedle/nds/devkitpro/devkitarm/bin/../lib/gcc/arm-none-eabi/4.7.1/../../../../arm-none-eabi/lib/thumb\libm.a(lib_a-w_exp.o)
 .bss           0x02042b51        0x0 c:/users/riedle/nds/devkitpro/devkitarm/bin/../lib/gcc/arm-none-eabi/4.7.1/../../../../arm-none-eabi/lib/thumb\libm.a(lib_a-w_fmod.o)
 .bss           0x02042b51        0x0 c:/users/riedle/nds/devkitpro/devkitarm/bin/../lib/gcc/arm-none-eabi/4.7.1/../../../../arm-none-eabi/lib/thumb\libm.a(lib_a-w_log10.o)
 .bss           0x02042b51        0x0 c:/users/riedle/nds/devkitpro/devkitarm/bin/../lib/gcc/arm-none-eabi/4.7.1/../../../../arm-none-eabi/lib/thumb\libm.a(lib_a-w_log.o)
 .bss           0x02042b51        0x0 c:/users/riedle/nds/devkitpro/devkitarm/bin/../lib/gcc/arm-none-eabi/4.7.1/../../../../arm-none-eabi/lib/thumb\libm.a(lib_a-w_pow.o)
 .bss           0x02042b51        0x0 c:/users/riedle/nds/devkitpro/devkitarm/bin/../lib/gcc/arm-none-eabi/4.7.1/../../../../arm-none-eabi/lib/thumb\libm.a(lib_a-w_sinh.o)
 .bss           0x02042b51        0x0 c:/users/riedle/nds/devkitpro/devkitarm/bin/../lib/gcc/arm-none-eabi/4.7.1/../../../../arm-none-eabi/lib/thumb\libm.a(lib_a-w_sqrt.o)
 .bss           0x02042b51        0x0 c:/users/riedle/nds/devkitpro/devkitarm/bin/../lib/gcc/arm-none-eabi/4.7.1/../../../../arm-none-eabi/lib/thumb\libm.a(lib_a-e_acos.o)
 .bss           0x02042b51        0x0 c:/users/riedle/nds/devkitpro/devkitarm/bin/../lib/gcc/arm-none-eabi/4.7.1/../../../../arm-none-eabi/lib/thumb\libm.a(lib_a-e_asin.o)
 .bss           0x02042b51        0x0 c:/users/riedle/nds/devkitpro/devkitarm/bin/../lib/gcc/arm-none-eabi/4.7.1/../../../../arm-none-eabi/lib/thumb\libm.a(lib_a-e_atan2.o)
 .bss           0x02042b51        0x0 c:/users/riedle/nds/devkitpro/devkitarm/bin/../lib/gcc/arm-none-eabi/4.7.1/../../../../arm-none-eabi/lib/thumb\libm.a(lib_a-e_cosh.o)
 .bss           0x02042b51        0x0 c:/users/riedle/nds/devkitpro/devkitarm/bin/../lib/gcc/arm-none-eabi/4.7.1/../../../../arm-none-eabi/lib/thumb\libm.a(lib_a-e_exp.o)
 .bss           0x02042b51        0x0 c:/users/riedle/nds/devkitpro/devkitarm/bin/../lib/gcc/arm-none-eabi/4.7.1/../../../../arm-none-eabi/lib/thumb\libm.a(lib_a-e_fmod.o)
 .bss           0x02042b51        0x0 c:/users/riedle/nds/devkitpro/devkitarm/bin/../lib/gcc/arm-none-eabi/4.7.1/../../../../arm-none-eabi/lib/thumb\libm.a(lib_a-e_log10.o)
 .bss           0x02042b51        0x0 c:/users/riedle/nds/devkitpro/devkitarm/bin/../lib/gcc/arm-none-eabi/4.7.1/../../../../arm-none-eabi/lib/thumb\libm.a(lib_a-e_log.o)
 .bss           0x02042b51        0x0 c:/users/riedle/nds/devkitpro/devkitarm/bin/../lib/gcc/arm-none-eabi/4.7.1/../../../../arm-none-eabi/lib/thumb\libm.a(lib_a-e_pow.o)
 .bss           0x02042b51        0x0 c:/users/riedle/nds/devkitpro/devkitarm/bin/../lib/gcc/arm-none-eabi/4.7.1/../../../../arm-none-eabi/lib/thumb\libm.a(lib_a-e_rem_pio2.o)
 .bss           0x02042b51        0x0 c:/users/riedle/nds/devkitpro/devkitarm/bin/../lib/gcc/arm-none-eabi/4.7.1/../../../../arm-none-eabi/lib/thumb\libm.a(lib_a-e_sinh.o)
 .bss           0x02042b51        0x0 c:/users/riedle/nds/devkitpro/devkitarm/bin/../lib/gcc/arm-none-eabi/4.7.1/../../../../arm-none-eabi/lib/thumb\libm.a(lib_a-e_sqrt.o)
 .bss           0x02042b51        0x0 c:/users/riedle/nds/devkitpro/devkitarm/bin/../lib/gcc/arm-none-eabi/4.7.1/../../../../arm-none-eabi/lib/thumb\libm.a(lib_a-k_cos.o)
 .bss           0x02042b51        0x0 c:/users/riedle/nds/devkitpro/devkitarm/bin/../lib/gcc/arm-none-eabi/4.7.1/../../../../arm-none-eabi/lib/thumb\libm.a(lib_a-k_rem_pio2.o)
 .bss           0x02042b51        0x0 c:/users/riedle/nds/devkitpro/devkitarm/bin/../lib/gcc/arm-none-eabi/4.7.1/../../../../arm-none-eabi/lib/thumb\libm.a(lib_a-k_sin.o)
 .bss           0x02042b51        0x0 c:/users/riedle/nds/devkitpro/devkitarm/bin/../lib/gcc/arm-none-eabi/4.7.1/../../../../arm-none-eabi/lib/thumb\libm.a(lib_a-k_tan.o)
 .bss           0x02042b51        0x0 c:/users/riedle/nds/devkitpro/devkitarm/bin/../lib/gcc/arm-none-eabi/4.7.1/../../../../arm-none-eabi/lib/thumb\libm.a(lib_a-s_copysign.o)
 .bss           0x02042b51        0x0 c:/users/riedle/nds/devkitpro/devkitarm/bin/../lib/gcc/arm-none-eabi/4.7.1/../../../../arm-none-eabi/lib/thumb\libm.a(lib_a-s_expm1.o)
 .bss           0x02042b51        0x0 c:/users/riedle/nds/devkitpro/devkitarm/bin/../lib/gcc/arm-none-eabi/4.7.1/../../../../arm-none-eabi/lib/thumb\libm.a(lib_a-s_finite.o)
 .bss           0x02042b51        0x0 c:/users/riedle/nds/devkitpro/devkitarm/bin/../lib/gcc/arm-none-eabi/4.7.1/../../../../arm-none-eabi/lib/thumb\libm.a(lib_a-s_fpclassify.o)
 .bss           0x02042b51        0x0 c:/users/riedle/nds/devkitpro/devkitarm/bin/../lib/gcc/arm-none-eabi/4.7.1/../../../../arm-none-eabi/lib/thumb\libm.a(lib_a-s_lib_ver.o)
 .bss           0x02042b51        0x0 c:/users/riedle/nds/devkitpro/devkitarm/bin/../lib/gcc/arm-none-eabi/4.7.1/../../../../arm-none-eabi/lib/thumb\libm.a(lib_a-s_matherr.o)
 .bss           0x02042b51        0x0 c:/users/riedle/nds/devkitpro/devkitarm/bin/../lib/gcc/arm-none-eabi/4.7.1/../../../../arm-none-eabi/lib/thumb\libm.a(lib_a-s_nan.o)
 .bss           0x02042b51        0x0 c:/users/riedle/nds/devkitpro/devkitarm/bin/../lib/gcc/arm-none-eabi/4.7.1/../../../../arm-none-eabi/lib/thumb\libm.a(lib_a-s_rint.o)
 .bss           0x02042b51        0x0 c:/users/riedle/nds/devkitpro/devkitarm/bin/../lib/gcc/arm-none-eabi/4.7.1/thumb\libgcc.a(_udivsi3.o)
 .bss           0x02042b51        0x0 c:/users/riedle/nds/devkitpro/devkitarm/bin/../lib/gcc/arm-none-eabi/4.7.1/thumb\libgcc.a(_divsi3.o)
 .bss           0x02042b51        0x0 c:/users/riedle/nds/devkitpro/devkitarm/bin/../lib/gcc/arm-none-eabi/4.7.1/thumb\libgcc.a(_dvmd_tls.o)
 .bss           0x02042b51        0x0 c:/users/riedle/nds/devkitpro/devkitarm/bin/../lib/gcc/arm-none-eabi/4.7.1/thumb\libgcc.a(_arm_addsubdf3.o)
 .bss           0x02042b51        0x0 c:/users/riedle/nds/devkitpro/devkitarm/bin/../lib/gcc/arm-none-eabi/4.7.1/thumb\libgcc.a(_arm_muldivdf3.o)
 .bss           0x02042b51        0x0 c:/users/riedle/nds/devkitpro/devkitarm/bin/../lib/gcc/arm-none-eabi/4.7.1/thumb\libgcc.a(_arm_cmpdf2.o)
 .bss           0x02042b51        0x0 c:/users/riedle/nds/devkitpro/devkitarm/bin/../lib/gcc/arm-none-eabi/4.7.1/thumb\libgcc.a(_arm_fixdfsi.o)
 .bss           0x02042b51        0x0 c:/users/riedle/nds/devkitpro/devkitarm/bin/../lib/gcc/arm-none-eabi/4.7.1/thumb\libgcc.a(_arm_fixunsdfsi.o)
 .bss           0x02042b51        0x0 c:/users/riedle/nds/devkitpro/devkitarm/bin/../lib/gcc/arm-none-eabi/4.7.1/thumb\libgcc.a(unwind-arm.o)
 .bss           0x02042b51        0x0 c:/users/riedle/nds/devkitpro/devkitarm/bin/../lib/gcc/arm-none-eabi/4.7.1/thumb\libgcc.a(libunwind.o)
 .bss           0x02042b51        0x0 c:/users/riedle/nds/devkitpro/devkitarm/bin/../lib/gcc/arm-none-eabi/4.7.1/thumb\libgcc.a(pr-support.o)
 .bss           0x02042b51        0x0 c:/users/riedle/nds/devkitpro/devkitarm/bin/../lib/gcc/arm-none-eabi/4.7.1/../../../../arm-none-eabi/lib/thumb\libg.a(lib_a-abort.o)
 .bss           0x02042b51        0x0 c:/users/riedle/nds/devkitpro/devkitarm/bin/../lib/gcc/arm-none-eabi/4.7.1/../../../../arm-none-eabi/lib/thumb\libg.a(lib_a-bsearch.o)
 .bss           0x02042b51        0x0 c:/users/riedle/nds/devkitpro/devkitarm/bin/../lib/gcc/arm-none-eabi/4.7.1/../../../../arm-none-eabi/lib/thumb\libg.a(lib_a-clock.o)
 .bss           0x02042b51        0x0 c:/users/riedle/nds/devkitpro/devkitarm/bin/../lib/gcc/arm-none-eabi/4.7.1/../../../../arm-none-eabi/lib/thumb\libg.a(lib_a-ctype_.o)
 .bss           0x02042b51        0x0 c:/users/riedle/nds/devkitpro/devkitarm/bin/../lib/gcc/arm-none-eabi/4.7.1/../../../../arm-none-eabi/lib/thumb\libg.a(lib_a-difftime.o)
 .bss           0x02042b51        0x0 c:/users/riedle/nds/devkitpro/devkitarm/bin/../lib/gcc/arm-none-eabi/4.7.1/../../../../arm-none-eabi/lib/thumb\libg.a(lib_a-errno.o)
 .bss           0x02042b51        0x0 c:/users/riedle/nds/devkitpro/devkitarm/bin/../lib/gcc/arm-none-eabi/4.7.1/../../../../arm-none-eabi/lib/thumb\libg.a(lib_a-exit.o)
 .bss           0x02042b51        0x0 c:/users/riedle/nds/devkitpro/devkitarm/bin/../lib/gcc/arm-none-eabi/4.7.1/../../../../arm-none-eabi/lib/thumb\libg.a(lib_a-fclose.o)
 .bss           0x02042b51        0x0 c:/users/riedle/nds/devkitpro/devkitarm/bin/../lib/gcc/arm-none-eabi/4.7.1/../../../../arm-none-eabi/lib/thumb\libg.a(lib_a-fflush.o)
 .bss           0x02042b51        0x0 c:/users/riedle/nds/devkitpro/devkitarm/bin/../lib/gcc/arm-none-eabi/4.7.1/../../../../arm-none-eabi/lib/thumb\libg.a(lib_a-fgets.o)
 .bss           0x02042b51        0x0 c:/users/riedle/nds/devkitpro/devkitarm/bin/../lib/gcc/arm-none-eabi/4.7.1/../../../../arm-none-eabi/lib/thumb\libg.a(lib_a-findfp.o)
 .bss           0x02042b51        0x0 c:/users/riedle/nds/devkitpro/devkitarm/bin/../lib/gcc/arm-none-eabi/4.7.1/../../../../arm-none-eabi/lib/thumb\libg.a(lib_a-fopen.o)
 .bss           0x02042b51        0x0 c:/users/riedle/nds/devkitpro/devkitarm/bin/../lib/gcc/arm-none-eabi/4.7.1/../../../../arm-none-eabi/lib/thumb\libg.a(lib_a-fprintf.o)
 .bss           0x02042b51        0x0 c:/users/riedle/nds/devkitpro/devkitarm/bin/../lib/gcc/arm-none-eabi/4.7.1/../../../../arm-none-eabi/lib/thumb\libg.a(lib_a-fputc.o)
 .bss           0x02042b51        0x0 c:/users/riedle/nds/devkitpro/devkitarm/bin/../lib/gcc/arm-none-eabi/4.7.1/../../../../arm-none-eabi/lib/thumb\libg.a(lib_a-fputs.o)
 .bss           0x02042b51        0x0 c:/users/riedle/nds/devkitpro/devkitarm/bin/../lib/gcc/arm-none-eabi/4.7.1/../../../../arm-none-eabi/lib/thumb\libg.a(lib_a-fread.o)
 .bss           0x02042b51        0x0 c:/users/riedle/nds/devkitpro/devkitarm/bin/../lib/gcc/arm-none-eabi/4.7.1/../../../../arm-none-eabi/lib/thumb\libg.a(lib_a-freer.o)
 .bss           0x02042b51        0x0 c:/users/riedle/nds/devkitpro/devkitarm/bin/../lib/gcc/arm-none-eabi/4.7.1/../../../../arm-none-eabi/lib/thumb\libg.a(lib_a-freopen.o)
 .bss           0x02042b51        0x0 c:/users/riedle/nds/devkitpro/devkitarm/bin/../lib/gcc/arm-none-eabi/4.7.1/../../../../arm-none-eabi/lib/thumb\libg.a(lib_a-fscanf.o)
 .bss           0x02042b51        0x0 c:/users/riedle/nds/devkitpro/devkitarm/bin/../lib/gcc/arm-none-eabi/4.7.1/../../../../arm-none-eabi/lib/thumb\libg.a(lib_a-fseek.o)
 .bss           0x02042b51        0x0 c:/users/riedle/nds/devkitpro/devkitarm/bin/../lib/gcc/arm-none-eabi/4.7.1/../../../../arm-none-eabi/lib/thumb\libg.a(lib_a-ftell.o)
 .bss           0x02042b51        0x0 c:/users/riedle/nds/devkitpro/devkitarm/bin/../lib/gcc/arm-none-eabi/4.7.1/../../../../arm-none-eabi/lib/thumb\libg.a(lib_a-fvwrite.o)
 .bss           0x02042b51        0x0 c:/users/riedle/nds/devkitpro/devkitarm/bin/../lib/gcc/arm-none-eabi/4.7.1/../../../../arm-none-eabi/lib/thumb\libg.a(lib_a-fwalk.o)
 .bss           0x02042b51        0x0 c:/users/riedle/nds/devkitpro/devkitarm/bin/../lib/gcc/arm-none-eabi/4.7.1/../../../../arm-none-eabi/lib/thumb\libg.a(lib_a-fwrite.o)
 .bss           0x02042b51        0x0 c:/users/riedle/nds/devkitpro/devkitarm/bin/../lib/gcc/arm-none-eabi/4.7.1/../../../../arm-none-eabi/lib/thumb\libg.a(lib_a-getenv.o)
 .bss           0x02042b51        0x0 c:/users/riedle/nds/devkitpro/devkitarm/bin/../lib/gcc/arm-none-eabi/4.7.1/../../../../arm-none-eabi/lib/thumb\libg.a(lib_a-getenv_r.o)
 .bss           0x02042b51        0x0 c:/users/riedle/nds/devkitpro/devkitarm/bin/../lib/gcc/arm-none-eabi/4.7.1/../../../../arm-none-eabi/lib/thumb\libg.a(lib_a-gmtime.o)
 .bss           0x02042b51        0x0 c:/users/riedle/nds/devkitpro/devkitarm/bin/../lib/gcc/arm-none-eabi/4.7.1/../../../../arm-none-eabi/lib/thumb\libg.a(lib_a-gmtime_r.o)
 .bss           0x02042b51        0x0 c:/users/riedle/nds/devkitpro/devkitarm/bin/../lib/gcc/arm-none-eabi/4.7.1/../../../../arm-none-eabi/lib/thumb\libg.a(lib_a-impure.o)
 .bss           0x02042b51        0x0 c:/users/riedle/nds/devkitpro/devkitarm/bin/../lib/gcc/arm-none-eabi/4.7.1/../../../../arm-none-eabi/lib/thumb\libg.a(lib_a-init.o)
 .bss           0x02042b51        0x0 c:/users/riedle/nds/devkitpro/devkitarm/bin/../lib/gcc/arm-none-eabi/4.7.1/../../../../arm-none-eabi/lib/thumb\libg.a(lib_a-iprintf.o)
 .bss           0x02042b51        0x0 c:/users/riedle/nds/devkitpro/devkitarm/bin/../lib/gcc/arm-none-eabi/4.7.1/../../../../arm-none-eabi/lib/thumb\libg.a(lib_a-lcltime.o)
 .bss           0x02042b51        0x0 c:/users/riedle/nds/devkitpro/devkitarm/bin/../lib/gcc/arm-none-eabi/4.7.1/../../../../arm-none-eabi/lib/thumb\libg.a(lib_a-lcltime_r.o)
 *fill*         0x02042b51        0x3 00
 .bss           0x02042b54      0x2b8 c:/users/riedle/nds/devkitpro/devkitarm/bin/../lib/gcc/arm-none-eabi/4.7.1/../../../../arm-none-eabi/lib/thumb\libg.a(lib_a-locale.o)
                0x02042e00                _PathLocale
                0x02042e04                __mlocale_changed
                0x02042e08                __nlocale_changed
 .bss           0x02042e0c        0x0 c:/users/riedle/nds/devkitpro/devkitarm/bin/../lib/gcc/arm-none-eabi/4.7.1/../../../../arm-none-eabi/lib/thumb\libg.a(lib_a-makebuf.o)
 .bss           0x02042e0c        0x0 c:/users/riedle/nds/devkitpro/devkitarm/bin/../lib/gcc/arm-none-eabi/4.7.1/../../../../arm-none-eabi/lib/thumb\libg.a(lib_a-malloc.o)
 .bss           0x02042e0c       0x34 c:/users/riedle/nds/devkitpro/devkitarm/bin/../lib/gcc/arm-none-eabi/4.7.1/../../../../arm-none-eabi/lib/thumb\libg.a(lib_a-mallocr.o)
                0x02042e0c                __malloc_top_pad
                0x02042e10                __malloc_current_mallinfo
                0x02042e38                __malloc_max_sbrked_mem
                0x02042e3c                __malloc_max_total_mem
 .bss           0x02042e40        0x0 c:/users/riedle/nds/devkitpro/devkitarm/bin/../lib/gcc/arm-none-eabi/4.7.1/../../../../arm-none-eabi/lib/thumb\libg.a(lib_a-mbtowc_r.o)
 .bss           0x02042e40        0x0 c:/users/riedle/nds/devkitpro/devkitarm/bin/../lib/gcc/arm-none-eabi/4.7.1/../../../../arm-none-eabi/lib/thumb\libg.a(lib_a-memchr-stub.o)
 .bss           0x02042e40        0x0 c:/users/riedle/nds/devkitpro/devkitarm/bin/../lib/gcc/arm-none-eabi/4.7.1/../../../../arm-none-eabi/lib/thumb\libg.a(lib_a-memcmp.o)
 .bss           0x02042e40        0x0 c:/users/riedle/nds/devkitpro/devkitarm/bin/../lib/gcc/arm-none-eabi/4.7.1/../../../../arm-none-eabi/lib/thumb\libg.a(lib_a-memcpy-stub.o)
 .bss           0x02042e40        0x0 c:/users/riedle/nds/devkitpro/devkitarm/bin/../lib/gcc/arm-none-eabi/4.7.1/../../../../arm-none-eabi/lib/thumb\libg.a(lib_a-memmove.o)
 .bss           0x02042e40        0x0 c:/users/riedle/nds/devkitpro/devkitarm/bin/../lib/gcc/arm-none-eabi/4.7.1/../../../../arm-none-eabi/lib/thumb\libg.a(lib_a-memset.o)
 .bss           0x02042e40        0x0 c:/users/riedle/nds/devkitpro/devkitarm/bin/../lib/gcc/arm-none-eabi/4.7.1/../../../../arm-none-eabi/lib/thumb\libg.a(lib_a-mktime.o)
 .bss           0x02042e40        0x0 c:/users/riedle/nds/devkitpro/devkitarm/bin/../lib/gcc/arm-none-eabi/4.7.1/../../../../arm-none-eabi/lib/thumb\libg.a(lib_a-mktm_r.o)
 .bss           0x02042e40        0x0 c:/users/riedle/nds/devkitpro/devkitarm/bin/../lib/gcc/arm-none-eabi/4.7.1/../../../../arm-none-eabi/lib/thumb\libg.a(lib_a-mlock.o)
 .bss           0x02042e40        0x0 c:/users/riedle/nds/devkitpro/devkitarm/bin/../lib/gcc/arm-none-eabi/4.7.1/../../../../arm-none-eabi/lib/thumb\libg.a(lib_a-printf.o)
 .bss           0x02042e40        0x0 c:/users/riedle/nds/devkitpro/devkitarm/bin/../lib/gcc/arm-none-eabi/4.7.1/../../../../arm-none-eabi/lib/thumb\libg.a(lib_a-putc.o)
 .bss           0x02042e40        0x0 c:/users/riedle/nds/devkitpro/devkitarm/bin/../lib/gcc/arm-none-eabi/4.7.1/../../../../arm-none-eabi/lib/thumb\libg.a(lib_a-rand.o)
 .bss           0x02042e40        0x0 c:/users/riedle/nds/devkitpro/devkitarm/bin/../lib/gcc/arm-none-eabi/4.7.1/../../../../arm-none-eabi/lib/thumb\libg.a(lib_a-realloc.o)
 .bss           0x02042e40        0x0 c:/users/riedle/nds/devkitpro/devkitarm/bin/../lib/gcc/arm-none-eabi/4.7.1/../../../../arm-none-eabi/lib/thumb\libg.a(lib_a-reallocr.o)
 .bss           0x02042e40        0x0 c:/users/riedle/nds/devkitpro/devkitarm/bin/../lib/gcc/arm-none-eabi/4.7.1/../../../../arm-none-eabi/lib/thumb\libg.a(lib_a-refill.o)
 .bss           0x02042e40        0x0 c:/users/riedle/nds/devkitpro/devkitarm/bin/../lib/gcc/arm-none-eabi/4.7.1/../../../../arm-none-eabi/lib/thumb\libg.a(lib_a-remove.o)
 .bss           0x02042e40        0x0 c:/users/riedle/nds/devkitpro/devkitarm/bin/../lib/gcc/arm-none-eabi/4.7.1/../../../../arm-none-eabi/lib/thumb\libg.a(lib_a-rename.o)
 .bss           0x02042e40        0x0 c:/users/riedle/nds/devkitpro/devkitarm/bin/../lib/gcc/arm-none-eabi/4.7.1/../../../../arm-none-eabi/lib/thumb\libg.a(lib_a-rget.o)
 .bss           0x02042e40        0x0 c:/users/riedle/nds/devkitpro/devkitarm/bin/../lib/gcc/arm-none-eabi/4.7.1/../../../../arm-none-eabi/lib/thumb\libg.a(lib_a-setjmp.o)
 .bss           0x02042e40        0x0 c:/users/riedle/nds/devkitpro/devkitarm/bin/../lib/gcc/arm-none-eabi/4.7.1/../../../../arm-none-eabi/lib/thumb\libg.a(lib_a-setvbuf.o)
 .bss           0x02042e40        0x0 c:/users/riedle/nds/devkitpro/devkitarm/bin/../lib/gcc/arm-none-eabi/4.7.1/../../../../arm-none-eabi/lib/thumb\libg.a(lib_a-signal.o)
 .bss           0x02042e40        0x0 c:/users/riedle/nds/devkitpro/devkitarm/bin/../lib/gcc/arm-none-eabi/4.7.1/../../../../arm-none-eabi/lib/thumb\libg.a(lib_a-siscanf.o)
 .bss           0x02042e40        0x0 c:/users/riedle/nds/devkitpro/devkitarm/bin/../lib/gcc/arm-none-eabi/4.7.1/../../../../arm-none-eabi/lib/thumb\libg.a(lib_a-sprintf.o)
 .bss           0x02042e40        0x0 c:/users/riedle/nds/devkitpro/devkitarm/bin/../lib/gcc/arm-none-eabi/4.7.1/../../../../arm-none-eabi/lib/thumb\libg.a(lib_a-stdio.o)
 .bss           0x02042e40        0x0 c:/users/riedle/nds/devkitpro/devkitarm/bin/../lib/gcc/arm-none-eabi/4.7.1/../../../../arm-none-eabi/lib/thumb\libg.a(lib_a-strcasecmp.o)
 .bss           0x02042e40        0x0 c:/users/riedle/nds/devkitpro/devkitarm/bin/../lib/gcc/arm-none-eabi/4.7.1/../../../../arm-none-eabi/lib/thumb\libg.a(lib_a-strcat.o)
 .bss           0x02042e40        0x0 c:/users/riedle/nds/devkitpro/devkitarm/bin/../lib/gcc/arm-none-eabi/4.7.1/../../../../arm-none-eabi/lib/thumb\libg.a(lib_a-strchr.o)
 .bss           0x02042e40        0x0 c:/users/riedle/nds/devkitpro/devkitarm/bin/../lib/gcc/arm-none-eabi/4.7.1/../../../../arm-none-eabi/lib/thumb\libg.a(lib_a-strcmp.o)
 .bss           0x02042e40        0x0 c:/users/riedle/nds/devkitpro/devkitarm/bin/../lib/gcc/arm-none-eabi/4.7.1/../../../../arm-none-eabi/lib/thumb\libg.a(lib_a-strcoll.o)
 .bss           0x02042e40        0x0 c:/users/riedle/nds/devkitpro/devkitarm/bin/../lib/gcc/arm-none-eabi/4.7.1/../../../../arm-none-eabi/lib/thumb\libg.a(lib_a-strcpy.o)
 .bss           0x02042e40        0x0 c:/users/riedle/nds/devkitpro/devkitarm/bin/../lib/gcc/arm-none-eabi/4.7.1/../../../../arm-none-eabi/lib/thumb\libg.a(lib_a-strerror.o)
 .bss           0x02042e40        0x0 c:/users/riedle/nds/devkitpro/devkitarm/bin/../lib/gcc/arm-none-eabi/4.7.1/../../../../arm-none-eabi/lib/thumb\libg.a(lib_a-strftime.o)
 .bss           0x02042e40        0x0 c:/users/riedle/nds/devkitpro/devkitarm/bin/../lib/gcc/arm-none-eabi/4.7.1/../../../../arm-none-eabi/lib/thumb\libg.a(lib_a-strlcpy.o)
 .bss           0x02042e40        0x0 c:/users/riedle/nds/devkitpro/devkitarm/bin/../lib/gcc/arm-none-eabi/4.7.1/../../../../arm-none-eabi/lib/thumb\libg.a(lib_a-strlen.o)
 .bss           0x02042e40        0x0 c:/users/riedle/nds/devkitpro/devkitarm/bin/../lib/gcc/arm-none-eabi/4.7.1/../../../../arm-none-eabi/lib/thumb\libg.a(lib_a-strncasecmp.o)
 .bss           0x02042e40        0x0 c:/users/riedle/nds/devkitpro/devkitarm/bin/../lib/gcc/arm-none-eabi/4.7.1/../../../../arm-none-eabi/lib/thumb\libg.a(lib_a-strncmp.o)
 .bss           0x02042e40        0x0 c:/users/riedle/nds/devkitpro/devkitarm/bin/../lib/gcc/arm-none-eabi/4.7.1/../../../../arm-none-eabi/lib/thumb\libg.a(lib_a-strncpy.o)
 .bss           0x02042e40        0x0 c:/users/riedle/nds/devkitpro/devkitarm/bin/../lib/gcc/arm-none-eabi/4.7.1/../../../../arm-none-eabi/lib/thumb\libg.a(lib_a-strpbrk.o)
 .bss           0x02042e40        0x0 c:/users/riedle/nds/devkitpro/devkitarm/bin/../lib/gcc/arm-none-eabi/4.7.1/../../../../arm-none-eabi/lib/thumb\libg.a(lib_a-strspn.o)
 .bss           0x02042e40        0x0 c:/users/riedle/nds/devkitpro/devkitarm/bin/../lib/gcc/arm-none-eabi/4.7.1/../../../../arm-none-eabi/lib/thumb\libg.a(lib_a-strstr.o)
 .bss           0x02042e40        0x0 c:/users/riedle/nds/devkitpro/devkitarm/bin/../lib/gcc/arm-none-eabi/4.7.1/../../../../arm-none-eabi/lib/thumb\libg.a(lib_a-strtod.o)
 .bss           0x02042e40        0x0 c:/users/riedle/nds/devkitpro/devkitarm/bin/../lib/gcc/arm-none-eabi/4.7.1/../../../../arm-none-eabi/lib/thumb\libg.a(lib_a-strtol.o)
 .bss           0x02042e40        0x0 c:/users/riedle/nds/devkitpro/devkitarm/bin/../lib/gcc/arm-none-eabi/4.7.1/../../../../arm-none-eabi/lib/thumb\libg.a(lib_a-strtoul.o)
 .bss           0x02042e40        0x0 c:/users/riedle/nds/devkitpro/devkitarm/bin/../lib/gcc/arm-none-eabi/4.7.1/../../../../arm-none-eabi/lib/thumb\libg.a(lib_a-svfiscanf.o)
 .bss           0x02042e40        0x0 c:/users/riedle/nds/devkitpro/devkitarm/bin/../lib/gcc/arm-none-eabi/4.7.1/../../../../arm-none-eabi/lib/thumb\libg.a(lib_a-svfprintf.o)
 .bss           0x02042e40        0x0 c:/users/riedle/nds/devkitpro/devkitarm/bin/../lib/gcc/arm-none-eabi/4.7.1/../../../../arm-none-eabi/lib/thumb\libg.a(lib_a-system.o)
 .bss           0x02042e40        0x0 c:/users/riedle/nds/devkitpro/devkitarm/bin/../lib/gcc/arm-none-eabi/4.7.1/../../../../arm-none-eabi/lib/thumb\libg.a(lib_a-syswrite.o)
 .bss           0x02042e40      0x104 c:/users/riedle/nds/devkitpro/devkitarm/bin/../lib/gcc/arm-none-eabi/4.7.1/../../../../arm-none-eabi/lib/thumb\libg.a(lib_a-timelocal.o)
 .bss           0x02042f44        0x0 c:/users/riedle/nds/devkitpro/devkitarm/bin/../lib/gcc/arm-none-eabi/4.7.1/../../../../arm-none-eabi/lib/thumb\libg.a(lib_a-time.o)
 .bss           0x02042f44        0x0 c:/users/riedle/nds/devkitpro/devkitarm/bin/../lib/gcc/arm-none-eabi/4.7.1/../../../../arm-none-eabi/lib/thumb\libg.a(lib_a-tmpfile.o)
 .bss           0x02042f44        0x0 c:/users/riedle/nds/devkitpro/devkitarm/bin/../lib/gcc/arm-none-eabi/4.7.1/../../../../arm-none-eabi/lib/thumb\libg.a(lib_a-tmpnam.o)
 .bss           0x02042f44        0x0 c:/users/riedle/nds/devkitpro/devkitarm/bin/../lib/gcc/arm-none-eabi/4.7.1/../../../../arm-none-eabi/lib/thumb\libg.a(lib_a-tzlock.o)
 .bss           0x02042f44        0x8 c:/users/riedle/nds/devkitpro/devkitarm/bin/../lib/gcc/arm-none-eabi/4.7.1/../../../../arm-none-eabi/lib/thumb\libg.a(lib_a-tzvars.o)
                0x02042f44                _timezone
                0x02042f48                _daylight
 .bss           0x02042f4c        0x0 c:/users/riedle/nds/devkitpro/devkitarm/bin/../lib/gcc/arm-none-eabi/4.7.1/../../../../arm-none-eabi/lib/thumb\libg.a(lib_a-ungetc.o)
 .bss           0x02042f4c        0x0 c:/users/riedle/nds/devkitpro/devkitarm/bin/../lib/gcc/arm-none-eabi/4.7.1/../../../../arm-none-eabi/lib/thumb\libg.a(lib_a-u_strerr.o)
 .bss           0x02042f4c        0x0 c:/users/riedle/nds/devkitpro/devkitarm/bin/../lib/gcc/arm-none-eabi/4.7.1/../../../../arm-none-eabi/lib/thumb\libg.a(lib_a-vfiprintf.o)
 .bss           0x02042f4c        0x0 c:/users/riedle/nds/devkitpro/devkitarm/bin/../lib/gcc/arm-none-eabi/4.7.1/../../../../arm-none-eabi/lib/thumb\libg.a(lib_a-vfprintf.o)
 .bss           0x02042f4c        0x0 c:/users/riedle/nds/devkitpro/devkitarm/bin/../lib/gcc/arm-none-eabi/4.7.1/../../../../arm-none-eabi/lib/thumb\libg.a(lib_a-vfscanf.o)
 .bss           0x02042f4c        0x0 c:/users/riedle/nds/devkitpro/devkitarm/bin/../lib/gcc/arm-none-eabi/4.7.1/../../../../arm-none-eabi/lib/thumb\libg.a(lib_a-wbuf.o)
 .bss           0x02042f4c        0x0 c:/users/riedle/nds/devkitpro/devkitarm/bin/../lib/gcc/arm-none-eabi/4.7.1/../../../../arm-none-eabi/lib/thumb\libg.a(lib_a-wcrtomb.o)
 .bss           0x02042f4c        0x0 c:/users/riedle/nds/devkitpro/devkitarm/bin/../lib/gcc/arm-none-eabi/4.7.1/../../../../arm-none-eabi/lib/thumb\libg.a(lib_a-wcsrtombs.o)
 .bss           0x02042f4c        0x0 c:/users/riedle/nds/devkitpro/devkitarm/bin/../lib/gcc/arm-none-eabi/4.7.1/../../../../arm-none-eabi/lib/thumb\libg.a(lib_a-wctomb_r.o)
 .bss           0x02042f4c        0x0 c:/users/riedle/nds/devkitpro/devkitarm/bin/../lib/gcc/arm-none-eabi/4.7.1/../../../../arm-none-eabi/lib/thumb\libg.a(lib_a-wsetup.o)
 .bss           0x02042f4c        0x0 c:/users/riedle/nds/devkitpro/devkitarm/bin/../lib/gcc/arm-none-eabi/4.7.1/../../../../arm-none-eabi/lib/thumb\libg.a(lib_a-abs.o)
 .bss           0x02042f4c        0x0 c:/users/riedle/nds/devkitpro/devkitarm/bin/../lib/gcc/arm-none-eabi/4.7.1/../../../../arm-none-eabi/lib/thumb\libg.a(lib_a-__call_atexit.o)
 .bss           0x02042f4c        0x0 c:/users/riedle/nds/devkitpro/devkitarm/bin/../lib/gcc/arm-none-eabi/4.7.1/../../../../arm-none-eabi/lib/thumb\libg.a(lib_a-div.o)
 .bss           0x02042f4c        0x0 c:/users/riedle/nds/devkitpro/devkitarm/bin/../lib/gcc/arm-none-eabi/4.7.1/../../../../arm-none-eabi/lib/thumb\libg.a(lib_a-dtoa.o)
 .bss           0x02042f4c        0x4 c:/users/riedle/nds/devkitpro/devkitarm/bin/../lib/gcc/arm-none-eabi/4.7.1/../../../../arm-none-eabi/lib/thumb\libg.a(lib_a-environ.o)
 .bss           0x02042f50        0x0 c:/users/riedle/nds/devkitpro/devkitarm/bin/../lib/gcc/arm-none-eabi/4.7.1/../../../../arm-none-eabi/lib/thumb\libg.a(lib_a-envlock.o)
 .bss           0x02042f50        0x0 c:/users/riedle/nds/devkitpro/devkitarm/bin/../lib/gcc/arm-none-eabi/4.7.1/../../../../arm-none-eabi/lib/thumb\libg.a(lib_a-fdopen.o)
 .bss           0x02042f50        0x0 c:/users/riedle/nds/devkitpro/devkitarm/bin/../lib/gcc/arm-none-eabi/4.7.1/../../../../arm-none-eabi/lib/thumb\libg.a(lib_a-flags.o)
 .bss           0x02042f50        0x0 c:/users/riedle/nds/devkitpro/devkitarm/bin/../lib/gcc/arm-none-eabi/4.7.1/../../../../arm-none-eabi/lib/thumb\libg.a(lib_a-fputwc.o)
 .bss           0x02042f50        0x0 c:/users/riedle/nds/devkitpro/devkitarm/bin/../lib/gcc/arm-none-eabi/4.7.1/../../../../arm-none-eabi/lib/thumb\libg.a(lib_a-gdtoa-gethex.o)
 .bss           0x02042f50        0x0 c:/users/riedle/nds/devkitpro/devkitarm/bin/../lib/gcc/arm-none-eabi/4.7.1/../../../../arm-none-eabi/lib/thumb\libg.a(lib_a-gdtoa-hexnan.o)
 .bss           0x02042f50        0x0 c:/users/riedle/nds/devkitpro/devkitarm/bin/../lib/gcc/arm-none-eabi/4.7.1/../../../../arm-none-eabi/lib/thumb\libg.a(lib_a-gettzinfo.o)
 .bss           0x02042f50        0x0 c:/users/riedle/nds/devkitpro/devkitarm/bin/../lib/gcc/arm-none-eabi/4.7.1/../../../../arm-none-eabi/lib/thumb\libg.a(lib_a-iswspace.o)
 .bss           0x02042f50        0x0 c:/users/riedle/nds/devkitpro/devkitarm/bin/../lib/gcc/arm-none-eabi/4.7.1/../../../../arm-none-eabi/lib/thumb\libg.a(lib_a-jp2uc.o)
 .bss           0x02042f50        0x0 c:/users/riedle/nds/devkitpro/devkitarm/bin/../lib/gcc/arm-none-eabi/4.7.1/../../../../arm-none-eabi/lib/thumb\libg.a(lib_a-labs.o)
 .bss           0x02042f50        0x4 c:/users/riedle/nds/devkitpro/devkitarm/bin/../lib/gcc/arm-none-eabi/4.7.1/../../../../arm-none-eabi/lib/thumb\libg.a(lib_a-ldpart.o)
 .bss           0x02042f54        0x0 c:/users/riedle/nds/devkitpro/devkitarm/bin/../lib/gcc/arm-none-eabi/4.7.1/../../../../arm-none-eabi/lib/thumb\libg.a(lib_a-mbrtowc.o)
 .bss           0x02042f54        0x0 c:/users/riedle/nds/devkitpro/devkitarm/bin/../lib/gcc/arm-none-eabi/4.7.1/../../../../arm-none-eabi/lib/thumb\libg.a(lib_a-mprec.o)
 .bss           0x02042f54        0x0 c:/users/riedle/nds/devkitpro/devkitarm/bin/../lib/gcc/arm-none-eabi/4.7.1/../../../../arm-none-eabi/lib/thumb\libg.a(lib_a-sccl.o)
 .bss           0x02042f54        0x0 c:/users/riedle/nds/devkitpro/devkitarm/bin/../lib/gcc/arm-none-eabi/4.7.1/../../../../arm-none-eabi/lib/thumb\libg.a(lib_a-sf_nan.o)
 .bss           0x02042f54        0x0 c:/users/riedle/nds/devkitpro/devkitarm/bin/../lib/gcc/arm-none-eabi/4.7.1/../../../../arm-none-eabi/lib/thumb\libg.a(lib_a-sniprintf.o)
 .bss           0x02042f54        0x0 c:/users/riedle/nds/devkitpro/devkitarm/bin/../lib/gcc/arm-none-eabi/4.7.1/../../../../arm-none-eabi/lib/thumb\libg.a(lib_a-strtoll_r.o)
 .bss           0x02042f54        0x0 c:/users/riedle/nds/devkitpro/devkitarm/bin/../lib/gcc/arm-none-eabi/4.7.1/../../../../arm-none-eabi/lib/thumb\libg.a(lib_a-strtoull_r.o)
 .bss           0x02042f54        0x0 c:/users/riedle/nds/devkitpro/devkitarm/bin/../lib/gcc/arm-none-eabi/4.7.1/../../../../arm-none-eabi/lib/thumb\libg.a(lib_a-svfiprintf.o)
 .bss           0x02042f54        0x0 c:/users/riedle/nds/devkitpro/devkitarm/bin/../lib/gcc/arm-none-eabi/4.7.1/../../../../arm-none-eabi/lib/thumb\libg.a(lib_a-sysclose.o)
 .bss           0x02042f54        0x0 c:/users/riedle/nds/devkitpro/devkitarm/bin/../lib/gcc/arm-none-eabi/4.7.1/../../../../arm-none-eabi/lib/thumb\libg.a(lib_a-sysfstat.o)
 .bss           0x02042f54        0x0 c:/users/riedle/nds/devkitpro/devkitarm/bin/../lib/gcc/arm-none-eabi/4.7.1/../../../../arm-none-eabi/lib/thumb\libg.a(lib_a-sysopen.o)
 .bss           0x02042f54        0x0 c:/users/riedle/nds/devkitpro/devkitarm/bin/../lib/gcc/arm-none-eabi/4.7.1/../../../../arm-none-eabi/lib/thumb\libg.a(lib_a-sysread.o)
 .bss           0x02042f54        0x0 c:/users/riedle/nds/devkitpro/devkitarm/bin/../lib/gcc/arm-none-eabi/4.7.1/../../../../arm-none-eabi/lib/thumb\libg.a(lib_a-wcsnrtombs.o)
 .bss           0x02042f54        0x0 c:/users/riedle/nds/devkitpro/devkitarm/bin/../lib/gcc/arm-none-eabi/4.7.1/../../../../arm-none-eabi/lib/thumb\libg.a(lib_a-callocr.o)
 .bss           0x02042f54        0x0 c:/users/riedle/nds/devkitpro/devkitarm/bin/../lib/gcc/arm-none-eabi/4.7.1/../../../../arm-none-eabi/lib/thumb\libsysbase.a(iosupport.o)
 .bss           0x02042f54        0x0 c:/users/riedle/nds/devkitpro/devkitarm/bin/../lib/gcc/arm-none-eabi/4.7.1/../../../../arm-none-eabi/lib/thumb\libsysbase.a(close.o)
 .bss           0x02042f54        0x0 c:/users/riedle/nds/devkitpro/devkitarm/bin/../lib/gcc/arm-none-eabi/4.7.1/../../../../arm-none-eabi/lib/thumb\libsysbase.a(fstat.o)
 .bss           0x02042f54        0x0 c:/users/riedle/nds/devkitpro/devkitarm/bin/../lib/gcc/arm-none-eabi/4.7.1/../../../../arm-none-eabi/lib/thumb\libsysbase.a(getpid.o)
 .bss           0x02042f54        0x0 c:/users/riedle/nds/devkitpro/devkitarm/bin/../lib/gcc/arm-none-eabi/4.7.1/../../../../arm-none-eabi/lib/thumb\libsysbase.a(isatty.o)
 .bss           0x02042f54        0x0 c:/users/riedle/nds/devkitpro/devkitarm/bin/../lib/gcc/arm-none-eabi/4.7.1/../../../../arm-none-eabi/lib/thumb\libsysbase.a(kill.o)
 .bss           0x02042f54        0x0 c:/users/riedle/nds/devkitpro/devkitarm/bin/../lib/gcc/arm-none-eabi/4.7.1/../../../../arm-none-eabi/lib/thumb\libsysbase.a(lseek.o)
 .bss           0x02042f54        0x0 c:/users/riedle/nds/devkitpro/devkitarm/bin/../lib/gcc/arm-none-eabi/4.7.1/../../../../arm-none-eabi/lib/thumb\libsysbase.a(open.o)
 .bss           0x02042f54        0x0 c:/users/riedle/nds/devkitpro/devkitarm/bin/../lib/gcc/arm-none-eabi/4.7.1/../../../../arm-none-eabi/lib/thumb\libsysbase.a(read.o)
 .bss           0x02042f54        0x4 c:/users/riedle/nds/devkitpro/devkitarm/bin/../lib/gcc/arm-none-eabi/4.7.1/../../../../arm-none-eabi/lib/thumb\libsysbase.a(sbrk.o)
 .bss           0x02042f58        0x0 c:/users/riedle/nds/devkitpro/devkitarm/bin/../lib/gcc/arm-none-eabi/4.7.1/../../../../arm-none-eabi/lib/thumb\libsysbase.a(times.o)
 .bss           0x02042f58        0x0 c:/users/riedle/nds/devkitpro/devkitarm/bin/../lib/gcc/arm-none-eabi/4.7.1/../../../../arm-none-eabi/lib/thumb\libsysbase.a(unlink.o)
 .bss           0x02042f58        0x0 c:/users/riedle/nds/devkitpro/devkitarm/bin/../lib/gcc/arm-none-eabi/4.7.1/../../../../arm-none-eabi/lib/thumb\libsysbase.a(write.o)
 .bss           0x02042f58        0x0 c:/users/riedle/nds/devkitpro/devkitarm/bin/../lib/gcc/arm-none-eabi/4.7.1/../../../../arm-none-eabi/lib/thumb\libsysbase.a(_exit.o)
 .bss           0x02042f58        0x8 c:/users/riedle/nds/devkitpro/devkitarm/bin/../lib/gcc/arm-none-eabi/4.7.1/../../../../arm-none-eabi/lib/thumb\libsysbase.a(malloc_vars.o)
                0x02042f58                fake_heap_start
                0x02042f5c                fake_heap_end
 .bss           0x02042f60        0x0 c:/users/riedle/nds/devkitpro/devkitarm/bin/../lib/gcc/arm-none-eabi/4.7.1/../../../../arm-none-eabi/lib/thumb\libsysbase.a(rename.o)
 .bss           0x02042f60        0x0 c:/users/riedle/nds/devkitpro/devkitarm/bin/../lib/gcc/arm-none-eabi/4.7.1/../../../../arm-none-eabi/lib/thumb\libsysbase.a(build_argv.o)
 .bss           0x02042f60        0x8 c:/users/riedle/nds/devkitpro/devkitarm/bin/../lib/gcc/arm-none-eabi/4.7.1/../../../../arm-none-eabi/lib/thumb\libsysbase.a(syscall_support.o)
                0x02042f60                __syscalls
 .bss           0x02042f68     0x1000 c:/users/riedle/nds/devkitpro/devkitarm/bin/../lib/gcc/arm-none-eabi/4.7.1/../../../../arm-none-eabi/lib/thumb\libsysbase.a(handle_manager.o)
 .bss           0x02043f68        0x0 c:/users/riedle/nds/devkitpro/devkitarm/bin/../lib/gcc/arm-none-eabi/4.7.1/thumb\libgcc.a(_arm_truncdfsf2.o)
 .bss           0x02043f68        0x0 c:/users/riedle/nds/devkitpro/devkitarm/bin/../lib/gcc/arm-none-eabi/4.7.1/thumb\libgcc.a(_aeabi_uldivmod.o)
 .bss           0x02043f68        0x0 c:/users/riedle/nds/devkitpro/devkitarm/bin/../lib/gcc/arm-none-eabi/4.7.1/thumb\libgcc.a(_muldi3.o)
 .bss           0x02043f68        0x0 c:/users/riedle/nds/devkitpro/devkitarm/bin/../lib/gcc/arm-none-eabi/4.7.1/thumb\libgcc.a(bpabi.o)
 .bss           0x02043f68        0x0 c:/users/riedle/nds/devkitpro/devkitarm/bin/../lib/gcc/arm-none-eabi/4.7.1/thumb\libgcc.a(_divdi3.o)
 .bss           0x02043f68        0x0 c:/users/riedle/nds/devkitpro/devkitarm/bin/../lib/gcc/arm-none-eabi/4.7.1/thumb\libgcc.a(_udivdi3.o)
 .bss           0x02043f68        0x0 c:/users/riedle/nds/devkitpro/devkitarm/bin/../lib/gcc/arm-none-eabi/4.7.1/thumb\libgcc.a(_clzsi2.o)
 .bss           0x02043f68        0x0 c:/users/riedle/nds/devkitpro/devkitarm/bin/../lib/gcc/arm-none-eabi/4.7.1/thumb/crtend.o
 .bss           0x02043f68        0x0 c:/users/riedle/nds/devkitpro/devkitarm/bin/../lib/gcc/arm-none-eabi/4.7.1/thumb/crtn.o
 *(COMMON)
 COMMON         0x02043f68       0x5c c:/Users/riedle/NDS/DEVKITPRO/libnds/lib\libnds9.a(console.o)
                0x02043f68                currentCopy
 COMMON         0x02043fc4        0x1 c:/Users/riedle/NDS/DEVKITPRO/libnds/lib\libnds9.a(initSystem.o)
                0x02043fc4                __dsimode
 *fill*         0x02043fc5        0x3 00
 COMMON         0x02043fc8      0xa40 c:/Users/riedle/NDS/DEVKITPRO/libnds/lib\libnds9.a(fifosystem.o)
                0x02043fc8                fifo_datamsg_data
                0x02044008                fifo_buffer
                0x02044808                fifo_value32_func
                0x02044848                fifo_address_func
                0x02044888                fifo_value32_data
                0x020448c8                fifo_value32_queue
                0x02044908                fifo_data_queue
                0x02044948                fifo_address_data
                0x02044988                fifo_datamsg_func
                0x020449c8                fifo_address_queue
 COMMON         0x02044a08      0x148 c:/Users/riedle/NDS/DEVKITPRO/libnds/lib\libnds9.a(background.o)
                0x02044a08                bgState
                0x02044b48                bgIsTextLut
 COMMON         0x02044b50      0x100 c:/users/riedle/nds/devkitpro/devkitarm/bin/../lib/gcc/arm-none-eabi/4.7.1/../../../../arm-none-eabi/lib/thumb\libg.a(lib_a-gdtoa-gethex.o)
                0x02044b50                __hexdig
 COMMON         0x02044c50        0x4 c:/users/riedle/nds/devkitpro/devkitarm/bin/../lib/gcc/arm-none-eabi/4.7.1/../../../../arm-none-eabi/lib/thumb\libsysbase.a(times.o)
                0x02044c50                punixTime
                0x02044c54                . = ALIGN (0x4)
                0x02044c54                __bss_end__ = ABSOLUTE (.)
                0x02044c54                __end__ = ABSOLUTE (.)

.stab
 *(.stab)

.stabstr
 *(.stabstr)

.stab.excl
 *(.stab.excl)

.stab.exclstr
 *(.stab.exclstr)

.stab.index
 *(.stab.index)

.stab.indexstr
 *(.stab.indexstr)

.comment        0x00000000       0x44
 *(.comment)
 .comment       0x00000000       0x22 c:/users/riedle/nds/devkitpro/devkitarm/bin/../lib/gcc/arm-none-eabi/4.7.1/thumb/crtbegin.o
                                 0x23 (size before relaxing)
 .comment       0x00000000       0x23 main.o
 .comment       0x00000000       0x23 lapi.o
 .comment       0x00000000       0x23 lauxlib.o
 .comment       0x00000000       0x23 lbaselib.o
 .comment       0x00000000       0x23 lbitlib.o
 .comment       0x00000000       0x23 lcode.o
 .comment       0x00000000       0x23 lcorolib.o
 .comment       0x00000000       0x23 lctype.o
 .comment       0x00000000       0x23 ldblib.o
 .comment       0x00000000       0x23 ldebug.o
 .comment       0x00000000       0x23 ldo.o
 .comment       0x00000000       0x23 ldump.o
 .comment       0x00000000       0x23 lfunc.o
 .comment       0x00000000       0x23 lgc.o
 .comment       0x00000000       0x23 linit.o
 .comment       0x00000000       0x23 liolib.o
 .comment       0x00000000       0x23 llex.o
 .comment       0x00000000       0x23 lmathlib.o
 .comment       0x00000000       0x23 lmem.o
 .comment       0x00000000       0x23 loadlib.o
 .comment       0x00000000       0x23 lobject.o
 .comment       0x00000000       0x23 lopcodes.o
 .comment       0x00000000       0x23 loslib.o
 .comment       0x00000000       0x23 lparser.o
 .comment       0x00000000       0x23 lstate.o
 .comment       0x00000000       0x23 lstring.o
 .comment       0x00000000       0x23 lstrlib.o
 .comment       0x00000000       0x23 ltable.o
 .comment       0x00000000       0x23 ltablib.o
 .comment       0x00000000       0x23 ltm.o
 .comment       0x00000000       0x23 lundump.o
 .comment       0x00000000       0x23 lvm.o
 .comment       0x00000000       0x23 lzio.o
 .comment       0x00000022       0x22 c:/Users/riedle/NDS/DEVKITPRO/libnds/lib\libnds9.a(console.o)
                                 0x23 (size before relaxing)
 .comment       0x00000000       0x23 c:/Users/riedle/NDS/DEVKITPRO/libnds/lib\libnds9.a(initSystem.o)
 .comment       0x00000000       0x23 c:/Users/riedle/NDS/DEVKITPRO/libnds/lib\libnds9.a(fifosystem.o)
 .comment       0x00000000       0x23 c:/Users/riedle/NDS/DEVKITPRO/libnds/lib\libnds9.a(interrupts.o)
 .comment       0x00000000       0x23 c:/Users/riedle/NDS/DEVKITPRO/libnds/lib\libnds9.a(libnds_exit.arm.o)
 .comment       0x00000000       0x23 c:/Users/riedle/NDS/DEVKITPRO/libnds/lib\libnds9.a(background.o)
 .comment       0x00000000       0x23 c:/Users/riedle/NDS/DEVKITPRO/libnds/lib\libnds9.a(system.o)
 .comment       0x00000000       0x23 c:/Users/riedle/NDS/DEVKITPRO/libnds/lib\libnds9.a(trig.o)
 .comment       0x00000000       0x23 c:/Users/riedle/NDS/DEVKITPRO/libnds/lib\libnds9.a(video.o)
 .comment       0x00000000       0x23 c:/users/riedle/nds/devkitpro/devkitarm/bin/../lib/gcc/arm-none-eabi/4.7.1/../../../../arm-none-eabi/lib/thumb\libstdc++.a(new_op.o)
 .comment       0x00000000       0x23 c:/users/riedle/nds/devkitpro/devkitarm/bin/../lib/gcc/arm-none-eabi/4.7.1/../../../../arm-none-eabi/lib/thumb\libstdc++.a(eh_call.o)
 .comment       0x00000000       0x23 c:/users/riedle/nds/devkitpro/devkitarm/bin/../lib/gcc/arm-none-eabi/4.7.1/../../../../arm-none-eabi/lib/thumb\libstdc++.a(eh_personality.o)
 .comment       0x00000000       0x23 c:/users/riedle/nds/devkitpro/devkitarm/bin/../lib/gcc/arm-none-eabi/4.7.1/../../../../arm-none-eabi/lib/thumb\libstdc++.a(del_op.o)
 .comment       0x00000000       0x23 c:/users/riedle/nds/devkitpro/devkitarm/bin/../lib/gcc/arm-none-eabi/4.7.1/../../../../arm-none-eabi/lib/thumb\libstdc++.a(eh_terminate.o)
 .comment       0x00000000       0x23 c:/users/riedle/nds/devkitpro/devkitarm/bin/../lib/gcc/arm-none-eabi/4.7.1/../../../../arm-none-eabi/lib/thumb\libstdc++.a(eh_exception.o)
 .comment       0x00000000       0x23 c:/users/riedle/nds/devkitpro/devkitarm/bin/../lib/gcc/arm-none-eabi/4.7.1/../../../../arm-none-eabi/lib/thumb\libstdc++.a(eh_alloc.o)
 .comment       0x00000000       0x23 c:/users/riedle/nds/devkitpro/devkitarm/bin/../lib/gcc/arm-none-eabi/4.7.1/../../../../arm-none-eabi/lib/thumb\libstdc++.a(bad_alloc.o)
 .comment       0x00000000       0x23 c:/users/riedle/nds/devkitpro/devkitarm/bin/../lib/gcc/arm-none-eabi/4.7.1/../../../../arm-none-eabi/lib/thumb\libstdc++.a(class_type_info.o)
 .comment       0x00000000       0x23 c:/users/riedle/nds/devkitpro/devkitarm/bin/../lib/gcc/arm-none-eabi/4.7.1/../../../../arm-none-eabi/lib/thumb\libstdc++.a(new_handler.o)
 .comment       0x00000000       0x23 c:/users/riedle/nds/devkitpro/devkitarm/bin/../lib/gcc/arm-none-eabi/4.7.1/../../../../arm-none-eabi/lib/thumb\libstdc++.a(eh_arm.o)
 .comment       0x00000000       0x23 c:/users/riedle/nds/devkitpro/devkitarm/bin/../lib/gcc/arm-none-eabi/4.7.1/../../../../arm-none-eabi/lib/thumb\libstdc++.a(eh_throw.o)
 .comment       0x00000000       0x23 c:/users/riedle/nds/devkitpro/devkitarm/bin/../lib/gcc/arm-none-eabi/4.7.1/../../../../arm-none-eabi/lib/thumb\libstdc++.a(pure.o)
 .comment       0x00000000       0x23 c:/users/riedle/nds/devkitpro/devkitarm/bin/../lib/gcc/arm-none-eabi/4.7.1/../../../../arm-none-eabi/lib/thumb\libstdc++.a(eh_globals.o)
 .comment       0x00000000       0x23 c:/users/riedle/nds/devkitpro/devkitarm/bin/../lib/gcc/arm-none-eabi/4.7.1/../../../../arm-none-eabi/lib/thumb\libstdc++.a(eh_catch.o)
 .comment       0x00000000       0x23 c:/users/riedle/nds/devkitpro/devkitarm/bin/../lib/gcc/arm-none-eabi/4.7.1/../../../../arm-none-eabi/lib/thumb\libstdc++.a(si_class_type_info.o)
 .comment       0x00000000       0x23 c:/users/riedle/nds/devkitpro/devkitarm/bin/../lib/gcc/arm-none-eabi/4.7.1/../../../../arm-none-eabi/lib/thumb\libstdc++.a(eh_unex_handler.o)
 .comment       0x00000000       0x23 c:/users/riedle/nds/devkitpro/devkitarm/bin/../lib/gcc/arm-none-eabi/4.7.1/../../../../arm-none-eabi/lib/thumb\libstdc++.a(tinfo.o)
 .comment       0x00000000       0x23 c:/users/riedle/nds/devkitpro/devkitarm/bin/../lib/gcc/arm-none-eabi/4.7.1/../../../../arm-none-eabi/lib/thumb\libstdc++.a(eh_term_handler.o)
 .comment       0x00000000       0x23 c:/users/riedle/nds/devkitpro/devkitarm/bin/../lib/gcc/arm-none-eabi/4.7.1/../../../../arm-none-eabi/lib/thumb\libstdc++.a(vterminate.o)
 .comment       0x00000000       0x23 c:/users/riedle/nds/devkitpro/devkitarm/bin/../lib/gcc/arm-none-eabi/4.7.1/../../../../arm-none-eabi/lib/thumb\libstdc++.a(eh_type.o)
 .comment       0x00000000       0x23 c:/users/riedle/nds/devkitpro/devkitarm/bin/../lib/gcc/arm-none-eabi/4.7.1/../../../../arm-none-eabi/lib/thumb\libstdc++.a(cp-demangle.o)
 .comment       0x00000000       0x23 c:/users/riedle/nds/devkitpro/devkitarm/bin/../lib/gcc/arm-none-eabi/4.7.1/../../../../arm-none-eabi/lib/thumb\libm.a(lib_a-s_atan.o)
 .comment       0x00000000       0x23 c:/users/riedle/nds/devkitpro/devkitarm/bin/../lib/gcc/arm-none-eabi/4.7.1/../../../../arm-none-eabi/lib/thumb\libm.a(lib_a-s_ceil.o)
 .comment       0x00000000       0x23 c:/users/riedle/nds/devkitpro/devkitarm/bin/../lib/gcc/arm-none-eabi/4.7.1/../../../../arm-none-eabi/lib/thumb\libm.a(lib_a-s_cos.o)
 .comment       0x00000000       0x23 c:/users/riedle/nds/devkitpro/devkitarm/bin/../lib/gcc/arm-none-eabi/4.7.1/../../../../arm-none-eabi/lib/thumb\libm.a(lib_a-s_fabs.o)
 .comment       0x00000000       0x23 c:/users/riedle/nds/devkitpro/devkitarm/bin/../lib/gcc/arm-none-eabi/4.7.1/../../../../arm-none-eabi/lib/thumb\libm.a(lib_a-s_floor.o)
 .comment       0x00000000       0x23 c:/users/riedle/nds/devkitpro/devkitarm/bin/../lib/gcc/arm-none-eabi/4.7.1/../../../../arm-none-eabi/lib/thumb\libm.a(lib_a-s_frexp.o)
 .comment       0x00000000       0x23 c:/users/riedle/nds/devkitpro/devkitarm/bin/../lib/gcc/arm-none-eabi/4.7.1/../../../../arm-none-eabi/lib/thumb\libm.a(lib_a-s_ldexp.o)
 .comment       0x00000000       0x23 c:/users/riedle/nds/devkitpro/devkitarm/bin/../lib/gcc/arm-none-eabi/4.7.1/../../../../arm-none-eabi/lib/thumb\libm.a(lib_a-s_modf.o)
 .comment       0x00000000       0x23 c:/users/riedle/nds/devkitpro/devkitarm/bin/../lib/gcc/arm-none-eabi/4.7.1/../../../../arm-none-eabi/lib/thumb\libm.a(lib_a-s_scalbn.o)
 .comment       0x00000000       0x23 c:/users/riedle/nds/devkitpro/devkitarm/bin/../lib/gcc/arm-none-eabi/4.7.1/../../../../arm-none-eabi/lib/thumb\libm.a(lib_a-s_sin.o)
 .comment       0x00000000       0x23 c:/users/riedle/nds/devkitpro/devkitarm/bin/../lib/gcc/arm-none-eabi/4.7.1/../../../../arm-none-eabi/lib/thumb\libm.a(lib_a-s_tanh.o)
 .comment       0x00000000       0x23 c:/users/riedle/nds/devkitpro/devkitarm/bin/../lib/gcc/arm-none-eabi/4.7.1/../../../../arm-none-eabi/lib/thumb\libm.a(lib_a-s_tan.o)
 .comment       0x00000000       0x23 c:/users/riedle/nds/devkitpro/devkitarm/bin/../lib/gcc/arm-none-eabi/4.7.1/../../../../arm-none-eabi/lib/thumb\libm.a(lib_a-w_acos.o)
 .comment       0x00000000       0x23 c:/users/riedle/nds/devkitpro/devkitarm/bin/../lib/gcc/arm-none-eabi/4.7.1/../../../../arm-none-eabi/lib/thumb\libm.a(lib_a-w_asin.o)
 .comment       0x00000000       0x23 c:/users/riedle/nds/devkitpro/devkitarm/bin/../lib/gcc/arm-none-eabi/4.7.1/../../../../arm-none-eabi/lib/thumb\libm.a(lib_a-w_atan2.o)
 .comment       0x00000000       0x23 c:/users/riedle/nds/devkitpro/devkitarm/bin/../lib/gcc/arm-none-eabi/4.7.1/../../../../arm-none-eabi/lib/thumb\libm.a(lib_a-w_cosh.o)
 .comment       0x00000000       0x23 c:/users/riedle/nds/devkitpro/devkitarm/bin/../lib/gcc/arm-none-eabi/4.7.1/../../../../arm-none-eabi/lib/thumb\libm.a(lib_a-w_exp.o)
 .comment       0x00000000       0x23 c:/users/riedle/nds/devkitpro/devkitarm/bin/../lib/gcc/arm-none-eabi/4.7.1/../../../../arm-none-eabi/lib/thumb\libm.a(lib_a-w_fmod.o)
 .comment       0x00000000       0x23 c:/users/riedle/nds/devkitpro/devkitarm/bin/../lib/gcc/arm-none-eabi/4.7.1/../../../../arm-none-eabi/lib/thumb\libm.a(lib_a-w_log10.o)
 .comment       0x00000000       0x23 c:/users/riedle/nds/devkitpro/devkitarm/bin/../lib/gcc/arm-none-eabi/4.7.1/../../../../arm-none-eabi/lib/thumb\libm.a(lib_a-w_log.o)
 .comment       0x00000000       0x23 c:/users/riedle/nds/devkitpro/devkitarm/bin/../lib/gcc/arm-none-eabi/4.7.1/../../../../arm-none-eabi/lib/thumb\libm.a(lib_a-w_pow.o)
 .comment       0x00000000       0x23 c:/users/riedle/nds/devkitpro/devkitarm/bin/../lib/gcc/arm-none-eabi/4.7.1/../../../../arm-none-eabi/lib/thumb\libm.a(lib_a-w_sinh.o)
 .comment       0x00000000       0x23 c:/users/riedle/nds/devkitpro/devkitarm/bin/../lib/gcc/arm-none-eabi/4.7.1/../../../../arm-none-eabi/lib/thumb\libm.a(lib_a-w_sqrt.o)
 .comment       0x00000000       0x23 c:/users/riedle/nds/devkitpro/devkitarm/bin/../lib/gcc/arm-none-eabi/4.7.1/../../../../arm-none-eabi/lib/thumb\libm.a(lib_a-e_acos.o)
 .comment       0x00000000       0x23 c:/users/riedle/nds/devkitpro/devkitarm/bin/../lib/gcc/arm-none-eabi/4.7.1/../../../../arm-none-eabi/lib/thumb\libm.a(lib_a-e_asin.o)
 .comment       0x00000000       0x23 c:/users/riedle/nds/devkitpro/devkitarm/bin/../lib/gcc/arm-none-eabi/4.7.1/../../../../arm-none-eabi/lib/thumb\libm.a(lib_a-e_atan2.o)
 .comment       0x00000000       0x23 c:/users/riedle/nds/devkitpro/devkitarm/bin/../lib/gcc/arm-none-eabi/4.7.1/../../../../arm-none-eabi/lib/thumb\libm.a(lib_a-e_cosh.o)
 .comment       0x00000000       0x23 c:/users/riedle/nds/devkitpro/devkitarm/bin/../lib/gcc/arm-none-eabi/4.7.1/../../../../arm-none-eabi/lib/thumb\libm.a(lib_a-e_exp.o)
 .comment       0x00000000       0x23 c:/users/riedle/nds/devkitpro/devkitarm/bin/../lib/gcc/arm-none-eabi/4.7.1/../../../../arm-none-eabi/lib/thumb\libm.a(lib_a-e_fmod.o)
 .comment       0x00000000       0x23 c:/users/riedle/nds/devkitpro/devkitarm/bin/../lib/gcc/arm-none-eabi/4.7.1/../../../../arm-none-eabi/lib/thumb\libm.a(lib_a-e_log10.o)
 .comment       0x00000000       0x23 c:/users/riedle/nds/devkitpro/devkitarm/bin/../lib/gcc/arm-none-eabi/4.7.1/../../../../arm-none-eabi/lib/thumb\libm.a(lib_a-e_log.o)
 .comment       0x00000000       0x23 c:/users/riedle/nds/devkitpro/devkitarm/bin/../lib/gcc/arm-none-eabi/4.7.1/../../../../arm-none-eabi/lib/thumb\libm.a(lib_a-e_pow.o)
 .comment       0x00000000       0x23 c:/users/riedle/nds/devkitpro/devkitarm/bin/../lib/gcc/arm-none-eabi/4.7.1/../../../../arm-none-eabi/lib/thumb\libm.a(lib_a-e_rem_pio2.o)
 .comment       0x00000000       0x23 c:/users/riedle/nds/devkitpro/devkitarm/bin/../lib/gcc/arm-none-eabi/4.7.1/../../../../arm-none-eabi/lib/thumb\libm.a(lib_a-e_sinh.o)
 .comment       0x00000000       0x23 c:/users/riedle/nds/devkitpro/devkitarm/bin/../lib/gcc/arm-none-eabi/4.7.1/../../../../arm-none-eabi/lib/thumb\libm.a(lib_a-e_sqrt.o)
 .comment       0x00000000       0x23 c:/users/riedle/nds/devkitpro/devkitarm/bin/../lib/gcc/arm-none-eabi/4.7.1/../../../../arm-none-eabi/lib/thumb\libm.a(lib_a-k_cos.o)
 .comment       0x00000000       0x23 c:/users/riedle/nds/devkitpro/devkitarm/bin/../lib/gcc/arm-none-eabi/4.7.1/../../../../arm-none-eabi/lib/thumb\libm.a(lib_a-k_rem_pio2.o)
 .comment       0x00000000       0x23 c:/users/riedle/nds/devkitpro/devkitarm/bin/../lib/gcc/arm-none-eabi/4.7.1/../../../../arm-none-eabi/lib/thumb\libm.a(lib_a-k_sin.o)
 .comment       0x00000000       0x23 c:/users/riedle/nds/devkitpro/devkitarm/bin/../lib/gcc/arm-none-eabi/4.7.1/../../../../arm-none-eabi/lib/thumb\libm.a(lib_a-k_tan.o)
 .comment       0x00000000       0x23 c:/users/riedle/nds/devkitpro/devkitarm/bin/../lib/gcc/arm-none-eabi/4.7.1/../../../../arm-none-eabi/lib/thumb\libm.a(lib_a-s_copysign.o)
 .comment       0x00000000       0x23 c:/users/riedle/nds/devkitpro/devkitarm/bin/../lib/gcc/arm-none-eabi/4.7.1/../../../../arm-none-eabi/lib/thumb\libm.a(lib_a-s_expm1.o)
 .comment       0x00000000       0x23 c:/users/riedle/nds/devkitpro/devkitarm/bin/../lib/gcc/arm-none-eabi/4.7.1/../../../../arm-none-eabi/lib/thumb\libm.a(lib_a-s_finite.o)
 .comment       0x00000000       0x23 c:/users/riedle/nds/devkitpro/devkitarm/bin/../lib/gcc/arm-none-eabi/4.7.1/../../../../arm-none-eabi/lib/thumb\libm.a(lib_a-s_fpclassify.o)
 .comment       0x00000000       0x23 c:/users/riedle/nds/devkitpro/devkitarm/bin/../lib/gcc/arm-none-eabi/4.7.1/../../../../arm-none-eabi/lib/thumb\libm.a(lib_a-s_lib_ver.o)
 .comment       0x00000000       0x23 c:/users/riedle/nds/devkitpro/devkitarm/bin/../lib/gcc/arm-none-eabi/4.7.1/../../../../arm-none-eabi/lib/thumb\libm.a(lib_a-s_matherr.o)
 .comment       0x00000000       0x23 c:/users/riedle/nds/devkitpro/devkitarm/bin/../lib/gcc/arm-none-eabi/4.7.1/../../../../arm-none-eabi/lib/thumb\libm.a(lib_a-s_nan.o)
 .comment       0x00000000       0x23 c:/users/riedle/nds/devkitpro/devkitarm/bin/../lib/gcc/arm-none-eabi/4.7.1/../../../../arm-none-eabi/lib/thumb\libm.a(lib_a-s_rint.o)
 .comment       0x00000000       0x23 c:/users/riedle/nds/devkitpro/devkitarm/bin/../lib/gcc/arm-none-eabi/4.7.1/thumb\libgcc.a(unwind-arm.o)
 .comment       0x00000000       0x23 c:/users/riedle/nds/devkitpro/devkitarm/bin/../lib/gcc/arm-none-eabi/4.7.1/thumb\libgcc.a(pr-support.o)
 .comment       0x00000000       0x23 c:/users/riedle/nds/devkitpro/devkitarm/bin/../lib/gcc/arm-none-eabi/4.7.1/../../../../arm-none-eabi/lib/thumb\libg.a(lib_a-abort.o)
 .comment       0x00000000       0x23 c:/users/riedle/nds/devkitpro/devkitarm/bin/../lib/gcc/arm-none-eabi/4.7.1/../../../../arm-none-eabi/lib/thumb\libg.a(lib_a-bsearch.o)
 .comment       0x00000000       0x23 c:/users/riedle/nds/devkitpro/devkitarm/bin/../lib/gcc/arm-none-eabi/4.7.1/../../../../arm-none-eabi/lib/thumb\libg.a(lib_a-clock.o)
 .comment       0x00000000       0x23 c:/users/riedle/nds/devkitpro/devkitarm/bin/../lib/gcc/arm-none-eabi/4.7.1/../../../../arm-none-eabi/lib/thumb\libg.a(lib_a-ctype_.o)
 .comment       0x00000000       0x23 c:/users/riedle/nds/devkitpro/devkitarm/bin/../lib/gcc/arm-none-eabi/4.7.1/../../../../arm-none-eabi/lib/thumb\libg.a(lib_a-difftime.o)
 .comment       0x00000000       0x23 c:/users/riedle/nds/devkitpro/devkitarm/bin/../lib/gcc/arm-none-eabi/4.7.1/../../../../arm-none-eabi/lib/thumb\libg.a(lib_a-errno.o)
 .comment       0x00000000       0x23 c:/users/riedle/nds/devkitpro/devkitarm/bin/../lib/gcc/arm-none-eabi/4.7.1/../../../../arm-none-eabi/lib/thumb\libg.a(lib_a-exit.o)
 .comment       0x00000000       0x23 c:/users/riedle/nds/devkitpro/devkitarm/bin/../lib/gcc/arm-none-eabi/4.7.1/../../../../arm-none-eabi/lib/thumb\libg.a(lib_a-fclose.o)
 .comment       0x00000000       0x23 c:/users/riedle/nds/devkitpro/devkitarm/bin/../lib/gcc/arm-none-eabi/4.7.1/../../../../arm-none-eabi/lib/thumb\libg.a(lib_a-fflush.o)
 .comment       0x00000000       0x23 c:/users/riedle/nds/devkitpro/devkitarm/bin/../lib/gcc/arm-none-eabi/4.7.1/../../../../arm-none-eabi/lib/thumb\libg.a(lib_a-fgets.o)
 .comment       0x00000000       0x23 c:/users/riedle/nds/devkitpro/devkitarm/bin/../lib/gcc/arm-none-eabi/4.7.1/../../../../arm-none-eabi/lib/thumb\libg.a(lib_a-findfp.o)
 .comment       0x00000000       0x23 c:/users/riedle/nds/devkitpro/devkitarm/bin/../lib/gcc/arm-none-eabi/4.7.1/../../../../arm-none-eabi/lib/thumb\libg.a(lib_a-fopen.o)
 .comment       0x00000000       0x23 c:/users/riedle/nds/devkitpro/devkitarm/bin/../lib/gcc/arm-none-eabi/4.7.1/../../../../arm-none-eabi/lib/thumb\libg.a(lib_a-fprintf.o)
 .comment       0x00000000       0x23 c:/users/riedle/nds/devkitpro/devkitarm/bin/../lib/gcc/arm-none-eabi/4.7.1/../../../../arm-none-eabi/lib/thumb\libg.a(lib_a-fputc.o)
 .comment       0x00000000       0x23 c:/users/riedle/nds/devkitpro/devkitarm/bin/../lib/gcc/arm-none-eabi/4.7.1/../../../../arm-none-eabi/lib/thumb\libg.a(lib_a-fputs.o)
 .comment       0x00000000       0x23 c:/users/riedle/nds/devkitpro/devkitarm/bin/../lib/gcc/arm-none-eabi/4.7.1/../../../../arm-none-eabi/lib/thumb\libg.a(lib_a-fread.o)
 .comment       0x00000000       0x23 c:/users/riedle/nds/devkitpro/devkitarm/bin/../lib/gcc/arm-none-eabi/4.7.1/../../../../arm-none-eabi/lib/thumb\libg.a(lib_a-freer.o)
 .comment       0x00000000       0x23 c:/users/riedle/nds/devkitpro/devkitarm/bin/../lib/gcc/arm-none-eabi/4.7.1/../../../../arm-none-eabi/lib/thumb\libg.a(lib_a-freopen.o)
 .comment       0x00000000       0x23 c:/users/riedle/nds/devkitpro/devkitarm/bin/../lib/gcc/arm-none-eabi/4.7.1/../../../../arm-none-eabi/lib/thumb\libg.a(lib_a-fscanf.o)
 .comment       0x00000000       0x23 c:/users/riedle/nds/devkitpro/devkitarm/bin/../lib/gcc/arm-none-eabi/4.7.1/../../../../arm-none-eabi/lib/thumb\libg.a(lib_a-fseek.o)
 .comment       0x00000000       0x23 c:/users/riedle/nds/devkitpro/devkitarm/bin/../lib/gcc/arm-none-eabi/4.7.1/../../../../arm-none-eabi/lib/thumb\libg.a(lib_a-ftell.o)
 .comment       0x00000000       0x23 c:/users/riedle/nds/devkitpro/devkitarm/bin/../lib/gcc/arm-none-eabi/4.7.1/../../../../arm-none-eabi/lib/thumb\libg.a(lib_a-fvwrite.o)
 .comment       0x00000000       0x23 c:/users/riedle/nds/devkitpro/devkitarm/bin/../lib/gcc/arm-none-eabi/4.7.1/../../../../arm-none-eabi/lib/thumb\libg.a(lib_a-fwalk.o)
 .comment       0x00000000       0x23 c:/users/riedle/nds/devkitpro/devkitarm/bin/../lib/gcc/arm-none-eabi/4.7.1/../../../../arm-none-eabi/lib/thumb\libg.a(lib_a-fwrite.o)
 .comment       0x00000000       0x23 c:/users/riedle/nds/devkitpro/devkitarm/bin/../lib/gcc/arm-none-eabi/4.7.1/../../../../arm-none-eabi/lib/thumb\libg.a(lib_a-getenv.o)
 .comment       0x00000000       0x23 c:/users/riedle/nds/devkitpro/devkitarm/bin/../lib/gcc/arm-none-eabi/4.7.1/../../../../arm-none-eabi/lib/thumb\libg.a(lib_a-getenv_r.o)
 .comment       0x00000000       0x23 c:/users/riedle/nds/devkitpro/devkitarm/bin/../lib/gcc/arm-none-eabi/4.7.1/../../../../arm-none-eabi/lib/thumb\libg.a(lib_a-gmtime.o)
 .comment       0x00000000       0x23 c:/users/riedle/nds/devkitpro/devkitarm/bin/../lib/gcc/arm-none-eabi/4.7.1/../../../../arm-none-eabi/lib/thumb\libg.a(lib_a-gmtime_r.o)
 .comment       0x00000000       0x23 c:/users/riedle/nds/devkitpro/devkitarm/bin/../lib/gcc/arm-none-eabi/4.7.1/../../../../arm-none-eabi/lib/thumb\libg.a(lib_a-impure.o)
 .comment       0x00000000       0x23 c:/users/riedle/nds/devkitpro/devkitarm/bin/../lib/gcc/arm-none-eabi/4.7.1/../../../../arm-none-eabi/lib/thumb\libg.a(lib_a-init.o)
 .comment       0x00000000       0x23 c:/users/riedle/nds/devkitpro/devkitarm/bin/../lib/gcc/arm-none-eabi/4.7.1/../../../../arm-none-eabi/lib/thumb\libg.a(lib_a-iprintf.o)
 .comment       0x00000000       0x23 c:/users/riedle/nds/devkitpro/devkitarm/bin/../lib/gcc/arm-none-eabi/4.7.1/../../../../arm-none-eabi/lib/thumb\libg.a(lib_a-lcltime.o)
 .comment       0x00000000       0x23 c:/users/riedle/nds/devkitpro/devkitarm/bin/../lib/gcc/arm-none-eabi/4.7.1/../../../../arm-none-eabi/lib/thumb\libg.a(lib_a-lcltime_r.o)
 .comment       0x00000000       0x23 c:/users/riedle/nds/devkitpro/devkitarm/bin/../lib/gcc/arm-none-eabi/4.7.1/../../../../arm-none-eabi/lib/thumb\libg.a(lib_a-locale.o)
 .comment       0x00000000       0x23 c:/users/riedle/nds/devkitpro/devkitarm/bin/../lib/gcc/arm-none-eabi/4.7.1/../../../../arm-none-eabi/lib/thumb\libg.a(lib_a-makebuf.o)
 .comment       0x00000000       0x23 c:/users/riedle/nds/devkitpro/devkitarm/bin/../lib/gcc/arm-none-eabi/4.7.1/../../../../arm-none-eabi/lib/thumb\libg.a(lib_a-malloc.o)
 .comment       0x00000000       0x23 c:/users/riedle/nds/devkitpro/devkitarm/bin/../lib/gcc/arm-none-eabi/4.7.1/../../../../arm-none-eabi/lib/thumb\libg.a(lib_a-mallocr.o)
 .comment       0x00000000       0x23 c:/users/riedle/nds/devkitpro/devkitarm/bin/../lib/gcc/arm-none-eabi/4.7.1/../../../../arm-none-eabi/lib/thumb\libg.a(lib_a-mbtowc_r.o)
 .comment       0x00000000       0x23 c:/users/riedle/nds/devkitpro/devkitarm/bin/../lib/gcc/arm-none-eabi/4.7.1/../../../../arm-none-eabi/lib/thumb\libg.a(lib_a-memchr-stub.o)
 .comment       0x00000000       0x23 c:/users/riedle/nds/devkitpro/devkitarm/bin/../lib/gcc/arm-none-eabi/4.7.1/../../../../arm-none-eabi/lib/thumb\libg.a(lib_a-memcmp.o)
 .comment       0x00000000       0x23 c:/users/riedle/nds/devkitpro/devkitarm/bin/../lib/gcc/arm-none-eabi/4.7.1/../../../../arm-none-eabi/lib/thumb\libg.a(lib_a-memcpy-stub.o)
 .comment       0x00000000       0x23 c:/users/riedle/nds/devkitpro/devkitarm/bin/../lib/gcc/arm-none-eabi/4.7.1/../../../../arm-none-eabi/lib/thumb\libg.a(lib_a-memmove.o)
 .comment       0x00000000       0x23 c:/users/riedle/nds/devkitpro/devkitarm/bin/../lib/gcc/arm-none-eabi/4.7.1/../../../../arm-none-eabi/lib/thumb\libg.a(lib_a-memset.o)
 .comment       0x00000000       0x23 c:/users/riedle/nds/devkitpro/devkitarm/bin/../lib/gcc/arm-none-eabi/4.7.1/../../../../arm-none-eabi/lib/thumb\libg.a(lib_a-mktime.o)
 .comment       0x00000000       0x23 c:/users/riedle/nds/devkitpro/devkitarm/bin/../lib/gcc/arm-none-eabi/4.7.1/../../../../arm-none-eabi/lib/thumb\libg.a(lib_a-mktm_r.o)
 .comment       0x00000000       0x23 c:/users/riedle/nds/devkitpro/devkitarm/bin/../lib/gcc/arm-none-eabi/4.7.1/../../../../arm-none-eabi/lib/thumb\libg.a(lib_a-mlock.o)
 .comment       0x00000000       0x23 c:/users/riedle/nds/devkitpro/devkitarm/bin/../lib/gcc/arm-none-eabi/4.7.1/../../../../arm-none-eabi/lib/thumb\libg.a(lib_a-printf.o)
 .comment       0x00000000       0x23 c:/users/riedle/nds/devkitpro/devkitarm/bin/../lib/gcc/arm-none-eabi/4.7.1/../../../../arm-none-eabi/lib/thumb\libg.a(lib_a-putc.o)
 .comment       0x00000000       0x23 c:/users/riedle/nds/devkitpro/devkitarm/bin/../lib/gcc/arm-none-eabi/4.7.1/../../../../arm-none-eabi/lib/thumb\libg.a(lib_a-rand.o)
 .comment       0x00000000       0x23 c:/users/riedle/nds/devkitpro/devkitarm/bin/../lib/gcc/arm-none-eabi/4.7.1/../../../../arm-none-eabi/lib/thumb\libg.a(lib_a-realloc.o)
 .comment       0x00000000       0x23 c:/users/riedle/nds/devkitpro/devkitarm/bin/../lib/gcc/arm-none-eabi/4.7.1/../../../../arm-none-eabi/lib/thumb\libg.a(lib_a-reallocr.o)
 .comment       0x00000000       0x23 c:/users/riedle/nds/devkitpro/devkitarm/bin/../lib/gcc/arm-none-eabi/4.7.1/../../../../arm-none-eabi/lib/thumb\libg.a(lib_a-refill.o)
 .comment       0x00000000       0x23 c:/users/riedle/nds/devkitpro/devkitarm/bin/../lib/gcc/arm-none-eabi/4.7.1/../../../../arm-none-eabi/lib/thumb\libg.a(lib_a-remove.o)
 .comment       0x00000000       0x23 c:/users/riedle/nds/devkitpro/devkitarm/bin/../lib/gcc/arm-none-eabi/4.7.1/../../../../arm-none-eabi/lib/thumb\libg.a(lib_a-rename.o)
 .comment       0x00000000       0x23 c:/users/riedle/nds/devkitpro/devkitarm/bin/../lib/gcc/arm-none-eabi/4.7.1/../../../../arm-none-eabi/lib/thumb\libg.a(lib_a-rget.o)
 .comment       0x00000000       0x23 c:/users/riedle/nds/devkitpro/devkitarm/bin/../lib/gcc/arm-none-eabi/4.7.1/../../../../arm-none-eabi/lib/thumb\libg.a(lib_a-setvbuf.o)
 .comment       0x00000000       0x23 c:/users/riedle/nds/devkitpro/devkitarm/bin/../lib/gcc/arm-none-eabi/4.7.1/../../../../arm-none-eabi/lib/thumb\libg.a(lib_a-signal.o)
 .comment       0x00000000       0x23 c:/users/riedle/nds/devkitpro/devkitarm/bin/../lib/gcc/arm-none-eabi/4.7.1/../../../../arm-none-eabi/lib/thumb\libg.a(lib_a-siscanf.o)
 .comment       0x00000000       0x23 c:/users/riedle/nds/devkitpro/devkitarm/bin/../lib/gcc/arm-none-eabi/4.7.1/../../../../arm-none-eabi/lib/thumb\libg.a(lib_a-sprintf.o)
 .comment       0x00000000       0x23 c:/users/riedle/nds/devkitpro/devkitarm/bin/../lib/gcc/arm-none-eabi/4.7.1/../../../../arm-none-eabi/lib/thumb\libg.a(lib_a-stdio.o)
 .comment       0x00000000       0x23 c:/users/riedle/nds/devkitpro/devkitarm/bin/../lib/gcc/arm-none-eabi/4.7.1/../../../../arm-none-eabi/lib/thumb\libg.a(lib_a-strcasecmp.o)
 .comment       0x00000000       0x23 c:/users/riedle/nds/devkitpro/devkitarm/bin/../lib/gcc/arm-none-eabi/4.7.1/../../../../arm-none-eabi/lib/thumb\libg.a(lib_a-strcat.o)
 .comment       0x00000000       0x23 c:/users/riedle/nds/devkitpro/devkitarm/bin/../lib/gcc/arm-none-eabi/4.7.1/../../../../arm-none-eabi/lib/thumb\libg.a(lib_a-strchr.o)
 .comment       0x00000000       0x23 c:/users/riedle/nds/devkitpro/devkitarm/bin/../lib/gcc/arm-none-eabi/4.7.1/../../../../arm-none-eabi/lib/thumb\libg.a(lib_a-strcmp.o)
 .comment       0x00000000       0x23 c:/users/riedle/nds/devkitpro/devkitarm/bin/../lib/gcc/arm-none-eabi/4.7.1/../../../../arm-none-eabi/lib/thumb\libg.a(lib_a-strcoll.o)
 .comment       0x00000000       0x23 c:/users/riedle/nds/devkitpro/devkitarm/bin/../lib/gcc/arm-none-eabi/4.7.1/../../../../arm-none-eabi/lib/thumb\libg.a(lib_a-strcpy.o)
 .comment       0x00000000       0x23 c:/users/riedle/nds/devkitpro/devkitarm/bin/../lib/gcc/arm-none-eabi/4.7.1/../../../../arm-none-eabi/lib/thumb\libg.a(lib_a-strerror.o)
 .comment       0x00000000       0x23 c:/users/riedle/nds/devkitpro/devkitarm/bin/../lib/gcc/arm-none-eabi/4.7.1/../../../../arm-none-eabi/lib/thumb\libg.a(lib_a-strftime.o)
 .comment       0x00000000       0x23 c:/users/riedle/nds/devkitpro/devkitarm/bin/../lib/gcc/arm-none-eabi/4.7.1/../../../../arm-none-eabi/lib/thumb\libg.a(lib_a-strlcpy.o)
 .comment       0x00000000       0x23 c:/users/riedle/nds/devkitpro/devkitarm/bin/../lib/gcc/arm-none-eabi/4.7.1/../../../../arm-none-eabi/lib/thumb\libg.a(lib_a-strlen.o)
 .comment       0x00000000       0x23 c:/users/riedle/nds/devkitpro/devkitarm/bin/../lib/gcc/arm-none-eabi/4.7.1/../../../../arm-none-eabi/lib/thumb\libg.a(lib_a-strncasecmp.o)
 .comment       0x00000000       0x23 c:/users/riedle/nds/devkitpro/devkitarm/bin/../lib/gcc/arm-none-eabi/4.7.1/../../../../arm-none-eabi/lib/thumb\libg.a(lib_a-strncmp.o)
 .comment       0x00000000       0x23 c:/users/riedle/nds/devkitpro/devkitarm/bin/../lib/gcc/arm-none-eabi/4.7.1/../../../../arm-none-eabi/lib/thumb\libg.a(lib_a-strncpy.o)
 .comment       0x00000000       0x23 c:/users/riedle/nds/devkitpro/devkitarm/bin/../lib/gcc/arm-none-eabi/4.7.1/../../../../arm-none-eabi/lib/thumb\libg.a(lib_a-strpbrk.o)
 .comment       0x00000000       0x23 c:/users/riedle/nds/devkitpro/devkitarm/bin/../lib/gcc/arm-none-eabi/4.7.1/../../../../arm-none-eabi/lib/thumb\libg.a(lib_a-strspn.o)
 .comment       0x00000000       0x23 c:/users/riedle/nds/devkitpro/devkitarm/bin/../lib/gcc/arm-none-eabi/4.7.1/../../../../arm-none-eabi/lib/thumb\libg.a(lib_a-strstr.o)
 .comment       0x00000000       0x23 c:/users/riedle/nds/devkitpro/devkitarm/bin/../lib/gcc/arm-none-eabi/4.7.1/../../../../arm-none-eabi/lib/thumb\libg.a(lib_a-strtod.o)
 .comment       0x00000000       0x23 c:/users/riedle/nds/devkitpro/devkitarm/bin/../lib/gcc/arm-none-eabi/4.7.1/../../../../arm-none-eabi/lib/thumb\libg.a(lib_a-strtol.o)
 .comment       0x00000000       0x23 c:/users/riedle/nds/devkitpro/devkitarm/bin/../lib/gcc/arm-none-eabi/4.7.1/../../../../arm-none-eabi/lib/thumb\libg.a(lib_a-strtoul.o)
 .comment       0x00000000       0x23 c:/users/riedle/nds/devkitpro/devkitarm/bin/../lib/gcc/arm-none-eabi/4.7.1/../../../../arm-none-eabi/lib/thumb\libg.a(lib_a-svfiscanf.o)
 .comment       0x00000000       0x23 c:/users/riedle/nds/devkitpro/devkitarm/bin/../lib/gcc/arm-none-eabi/4.7.1/../../../../arm-none-eabi/lib/thumb\libg.a(lib_a-svfprintf.o)
 .comment       0x00000000       0x23 c:/users/riedle/nds/devkitpro/devkitarm/bin/../lib/gcc/arm-none-eabi/4.7.1/../../../../arm-none-eabi/lib/thumb\libg.a(lib_a-system.o)
 .comment       0x00000000       0x23 c:/users/riedle/nds/devkitpro/devkitarm/bin/../lib/gcc/arm-none-eabi/4.7.1/../../../../arm-none-eabi/lib/thumb\libg.a(lib_a-syswrite.o)
 .comment       0x00000000       0x23 c:/users/riedle/nds/devkitpro/devkitarm/bin/../lib/gcc/arm-none-eabi/4.7.1/../../../../arm-none-eabi/lib/thumb\libg.a(lib_a-timelocal.o)
 .comment       0x00000000       0x23 c:/users/riedle/nds/devkitpro/devkitarm/bin/../lib/gcc/arm-none-eabi/4.7.1/../../../../arm-none-eabi/lib/thumb\libg.a(lib_a-time.o)
 .comment       0x00000000       0x23 c:/users/riedle/nds/devkitpro/devkitarm/bin/../lib/gcc/arm-none-eabi/4.7.1/../../../../arm-none-eabi/lib/thumb\libg.a(lib_a-tmpfile.o)
 .comment       0x00000000       0x23 c:/users/riedle/nds/devkitpro/devkitarm/bin/../lib/gcc/arm-none-eabi/4.7.1/../../../../arm-none-eabi/lib/thumb\libg.a(lib_a-tmpnam.o)
 .comment       0x00000000       0x23 c:/users/riedle/nds/devkitpro/devkitarm/bin/../lib/gcc/arm-none-eabi/4.7.1/../../../../arm-none-eabi/lib/thumb\libg.a(lib_a-tzlock.o)
 .comment       0x00000000       0x23 c:/users/riedle/nds/devkitpro/devkitarm/bin/../lib/gcc/arm-none-eabi/4.7.1/../../../../arm-none-eabi/lib/thumb\libg.a(lib_a-tzvars.o)
 .comment       0x00000000       0x23 c:/users/riedle/nds/devkitpro/devkitarm/bin/../lib/gcc/arm-none-eabi/4.7.1/../../../../arm-none-eabi/lib/thumb\libg.a(lib_a-ungetc.o)
 .comment       0x00000000       0x23 c:/users/riedle/nds/devkitpro/devkitarm/bin/../lib/gcc/arm-none-eabi/4.7.1/../../../../arm-none-eabi/lib/thumb\libg.a(lib_a-u_strerr.o)
 .comment       0x00000000       0x23 c:/users/riedle/nds/devkitpro/devkitarm/bin/../lib/gcc/arm-none-eabi/4.7.1/../../../../arm-none-eabi/lib/thumb\libg.a(lib_a-vfiprintf.o)
 .comment       0x00000000       0x23 c:/users/riedle/nds/devkitpro/devkitarm/bin/../lib/gcc/arm-none-eabi/4.7.1/../../../../arm-none-eabi/lib/thumb\libg.a(lib_a-vfprintf.o)
 .comment       0x00000000       0x23 c:/users/riedle/nds/devkitpro/devkitarm/bin/../lib/gcc/arm-none-eabi/4.7.1/../../../../arm-none-eabi/lib/thumb\libg.a(lib_a-vfscanf.o)
 .comment       0x00000000       0x23 c:/users/riedle/nds/devkitpro/devkitarm/bin/../lib/gcc/arm-none-eabi/4.7.1/../../../../arm-none-eabi/lib/thumb\libg.a(lib_a-wbuf.o)
 .comment       0x00000000       0x23 c:/users/riedle/nds/devkitpro/devkitarm/bin/../lib/gcc/arm-none-eabi/4.7.1/../../../../arm-none-eabi/lib/thumb\libg.a(lib_a-wcrtomb.o)
 .comment       0x00000000       0x23 c:/users/riedle/nds/devkitpro/devkitarm/bin/../lib/gcc/arm-none-eabi/4.7.1/../../../../arm-none-eabi/lib/thumb\libg.a(lib_a-wcsrtombs.o)
 .comment       0x00000000       0x23 c:/users/riedle/nds/devkitpro/devkitarm/bin/../lib/gcc/arm-none-eabi/4.7.1/../../../../arm-none-eabi/lib/thumb\libg.a(lib_a-wctomb_r.o)
 .comment       0x00000000       0x23 c:/users/riedle/nds/devkitpro/devkitarm/bin/../lib/gcc/arm-none-eabi/4.7.1/../../../../arm-none-eabi/lib/thumb\libg.a(lib_a-wsetup.o)
 .comment       0x00000000       0x23 c:/users/riedle/nds/devkitpro/devkitarm/bin/../lib/gcc/arm-none-eabi/4.7.1/../../../../arm-none-eabi/lib/thumb\libg.a(lib_a-abs.o)
 .comment       0x00000000       0x23 c:/users/riedle/nds/devkitpro/devkitarm/bin/../lib/gcc/arm-none-eabi/4.7.1/../../../../arm-none-eabi/lib/thumb\libg.a(lib_a-__call_atexit.o)
 .comment       0x00000000       0x23 c:/users/riedle/nds/devkitpro/devkitarm/bin/../lib/gcc/arm-none-eabi/4.7.1/../../../../arm-none-eabi/lib/thumb\libg.a(lib_a-div.o)
 .comment       0x00000000       0x23 c:/users/riedle/nds/devkitpro/devkitarm/bin/../lib/gcc/arm-none-eabi/4.7.1/../../../../arm-none-eabi/lib/thumb\libg.a(lib_a-dtoa.o)
 .comment       0x00000000       0x23 c:/users/riedle/nds/devkitpro/devkitarm/bin/../lib/gcc/arm-none-eabi/4.7.1/../../../../arm-none-eabi/lib/thumb\libg.a(lib_a-environ.o)
 .comment       0x00000000       0x23 c:/users/riedle/nds/devkitpro/devkitarm/bin/../lib/gcc/arm-none-eabi/4.7.1/../../../../arm-none-eabi/lib/thumb\libg.a(lib_a-envlock.o)
 .comment       0x00000000       0x23 c:/users/riedle/nds/devkitpro/devkitarm/bin/../lib/gcc/arm-none-eabi/4.7.1/../../../../arm-none-eabi/lib/thumb\libg.a(lib_a-fdopen.o)
 .comment       0x00000000       0x23 c:/users/riedle/nds/devkitpro/devkitarm/bin/../lib/gcc/arm-none-eabi/4.7.1/../../../../arm-none-eabi/lib/thumb\libg.a(lib_a-flags.o)
 .comment       0x00000000       0x23 c:/users/riedle/nds/devkitpro/devkitarm/bin/../lib/gcc/arm-none-eabi/4.7.1/../../../../arm-none-eabi/lib/thumb\libg.a(lib_a-fputwc.o)
 .comment       0x00000000       0x23 c:/users/riedle/nds/devkitpro/devkitarm/bin/../lib/gcc/arm-none-eabi/4.7.1/../../../../arm-none-eabi/lib/thumb\libg.a(lib_a-gdtoa-gethex.o)
 .comment       0x00000000       0x23 c:/users/riedle/nds/devkitpro/devkitarm/bin/../lib/gcc/arm-none-eabi/4.7.1/../../../../arm-none-eabi/lib/thumb\libg.a(lib_a-gdtoa-hexnan.o)
 .comment       0x00000000       0x23 c:/users/riedle/nds/devkitpro/devkitarm/bin/../lib/gcc/arm-none-eabi/4.7.1/../../../../arm-none-eabi/lib/thumb\libg.a(lib_a-gettzinfo.o)
 .comment       0x00000000       0x23 c:/users/riedle/nds/devkitpro/devkitarm/bin/../lib/gcc/arm-none-eabi/4.7.1/../../../../arm-none-eabi/lib/thumb\libg.a(lib_a-iswspace.o)
 .comment       0x00000000       0x23 c:/users/riedle/nds/devkitpro/devkitarm/bin/../lib/gcc/arm-none-eabi/4.7.1/../../../../arm-none-eabi/lib/thumb\libg.a(lib_a-jp2uc.o)
 .comment       0x00000000       0x23 c:/users/riedle/nds/devkitpro/devkitarm/bin/../lib/gcc/arm-none-eabi/4.7.1/../../../../arm-none-eabi/lib/thumb\libg.a(lib_a-labs.o)
 .comment       0x00000000       0x23 c:/users/riedle/nds/devkitpro/devkitarm/bin/../lib/gcc/arm-none-eabi/4.7.1/../../../../arm-none-eabi/lib/thumb\libg.a(lib_a-ldpart.o)
 .comment       0x00000000       0x23 c:/users/riedle/nds/devkitpro/devkitarm/bin/../lib/gcc/arm-none-eabi/4.7.1/../../../../arm-none-eabi/lib/thumb\libg.a(lib_a-mbrtowc.o)
 .comment       0x00000000       0x23 c:/users/riedle/nds/devkitpro/devkitarm/bin/../lib/gcc/arm-none-eabi/4.7.1/../../../../arm-none-eabi/lib/thumb\libg.a(lib_a-mprec.o)
 .comment       0x00000000       0x23 c:/users/riedle/nds/devkitpro/devkitarm/bin/../lib/gcc/arm-none-eabi/4.7.1/../../../../arm-none-eabi/lib/thumb\libg.a(lib_a-sccl.o)
 .comment       0x00000000       0x23 c:/users/riedle/nds/devkitpro/devkitarm/bin/../lib/gcc/arm-none-eabi/4.7.1/../../../../arm-none-eabi/lib/thumb\libg.a(lib_a-sf_nan.o)
 .comment       0x00000000       0x23 c:/users/riedle/nds/devkitpro/devkitarm/bin/../lib/gcc/arm-none-eabi/4.7.1/../../../../arm-none-eabi/lib/thumb\libg.a(lib_a-sniprintf.o)
 .comment       0x00000000       0x23 c:/users/riedle/nds/devkitpro/devkitarm/bin/../lib/gcc/arm-none-eabi/4.7.1/../../../../arm-none-eabi/lib/thumb\libg.a(lib_a-strtoll_r.o)
 .comment       0x00000000       0x23 c:/users/riedle/nds/devkitpro/devkitarm/bin/../lib/gcc/arm-none-eabi/4.7.1/../../../../arm-none-eabi/lib/thumb\libg.a(lib_a-strtoull_r.o)
 .comment       0x00000000       0x23 c:/users/riedle/nds/devkitpro/devkitarm/bin/../lib/gcc/arm-none-eabi/4.7.1/../../../../arm-none-eabi/lib/thumb\libg.a(lib_a-svfiprintf.o)
 .comment       0x00000000       0x23 c:/users/riedle/nds/devkitpro/devkitarm/bin/../lib/gcc/arm-none-eabi/4.7.1/../../../../arm-none-eabi/lib/thumb\libg.a(lib_a-sysclose.o)
 .comment       0x00000000       0x23 c:/users/riedle/nds/devkitpro/devkitarm/bin/../lib/gcc/arm-none-eabi/4.7.1/../../../../arm-none-eabi/lib/thumb\libg.a(lib_a-sysfstat.o)
 .comment       0x00000000       0x23 c:/users/riedle/nds/devkitpro/devkitarm/bin/../lib/gcc/arm-none-eabi/4.7.1/../../../../arm-none-eabi/lib/thumb\libg.a(lib_a-sysopen.o)
 .comment       0x00000000       0x23 c:/users/riedle/nds/devkitpro/devkitarm/bin/../lib/gcc/arm-none-eabi/4.7.1/../../../../arm-none-eabi/lib/thumb\libg.a(lib_a-sysread.o)
 .comment       0x00000000       0x23 c:/users/riedle/nds/devkitpro/devkitarm/bin/../lib/gcc/arm-none-eabi/4.7.1/../../../../arm-none-eabi/lib/thumb\libg.a(lib_a-wcsnrtombs.o)
 .comment       0x00000000       0x23 c:/users/riedle/nds/devkitpro/devkitarm/bin/../lib/gcc/arm-none-eabi/4.7.1/../../../../arm-none-eabi/lib/thumb\libg.a(lib_a-callocr.o)
 .comment       0x00000000       0x23 c:/users/riedle/nds/devkitpro/devkitarm/bin/../lib/gcc/arm-none-eabi/4.7.1/../../../../arm-none-eabi/lib/thumb\libsysbase.a(iosupport.o)
 .comment       0x00000000       0x23 c:/users/riedle/nds/devkitpro/devkitarm/bin/../lib/gcc/arm-none-eabi/4.7.1/../../../../arm-none-eabi/lib/thumb\libsysbase.a(close.o)
 .comment       0x00000000       0x23 c:/users/riedle/nds/devkitpro/devkitarm/bin/../lib/gcc/arm-none-eabi/4.7.1/../../../../arm-none-eabi/lib/thumb\libsysbase.a(fstat.o)
 .comment       0x00000000       0x23 c:/users/riedle/nds/devkitpro/devkitarm/bin/../lib/gcc/arm-none-eabi/4.7.1/../../../../arm-none-eabi/lib/thumb\libsysbase.a(getpid.o)
 .comment       0x00000000       0x23 c:/users/riedle/nds/devkitpro/devkitarm/bin/../lib/gcc/arm-none-eabi/4.7.1/../../../../arm-none-eabi/lib/thumb\libsysbase.a(isatty.o)
 .comment       0x00000000       0x23 c:/users/riedle/nds/devkitpro/devkitarm/bin/../lib/gcc/arm-none-eabi/4.7.1/../../../../arm-none-eabi/lib/thumb\libsysbase.a(kill.o)
 .comment       0x00000000       0x23 c:/users/riedle/nds/devkitpro/devkitarm/bin/../lib/gcc/arm-none-eabi/4.7.1/../../../../arm-none-eabi/lib/thumb\libsysbase.a(lseek.o)
 .comment       0x00000000       0x23 c:/users/riedle/nds/devkitpro/devkitarm/bin/../lib/gcc/arm-none-eabi/4.7.1/../../../../arm-none-eabi/lib/thumb\libsysbase.a(open.o)
 .comment       0x00000000       0x23 c:/users/riedle/nds/devkitpro/devkitarm/bin/../lib/gcc/arm-none-eabi/4.7.1/../../../../arm-none-eabi/lib/thumb\libsysbase.a(read.o)
 .comment       0x00000000       0x23 c:/users/riedle/nds/devkitpro/devkitarm/bin/../lib/gcc/arm-none-eabi/4.7.1/../../../../arm-none-eabi/lib/thumb\libsysbase.a(sbrk.o)
 .comment       0x00000000       0x23 c:/users/riedle/nds/devkitpro/devkitarm/bin/../lib/gcc/arm-none-eabi/4.7.1/../../../../arm-none-eabi/lib/thumb\libsysbase.a(times.o)
 .comment       0x00000000       0x23 c:/users/riedle/nds/devkitpro/devkitarm/bin/../lib/gcc/arm-none-eabi/4.7.1/../../../../arm-none-eabi/lib/thumb\libsysbase.a(unlink.o)
 .comment       0x00000000       0x23 c:/users/riedle/nds/devkitpro/devkitarm/bin/../lib/gcc/arm-none-eabi/4.7.1/../../../../arm-none-eabi/lib/thumb\libsysbase.a(write.o)
 .comment       0x00000000       0x23 c:/users/riedle/nds/devkitpro/devkitarm/bin/../lib/gcc/arm-none-eabi/4.7.1/../../../../arm-none-eabi/lib/thumb\libsysbase.a(_exit.o)
 .comment       0x00000000       0x23 c:/users/riedle/nds/devkitpro/devkitarm/bin/../lib/gcc/arm-none-eabi/4.7.1/../../../../arm-none-eabi/lib/thumb\libsysbase.a(malloc_vars.o)
 .comment       0x00000000       0x23 c:/users/riedle/nds/devkitpro/devkitarm/bin/../lib/gcc/arm-none-eabi/4.7.1/../../../../arm-none-eabi/lib/thumb\libsysbase.a(rename.o)
 .comment       0x00000000       0x23 c:/users/riedle/nds/devkitpro/devkitarm/bin/../lib/gcc/arm-none-eabi/4.7.1/../../../../arm-none-eabi/lib/thumb\libsysbase.a(build_argv.o)
 .comment       0x00000000       0x23 c:/users/riedle/nds/devkitpro/devkitarm/bin/../lib/gcc/arm-none-eabi/4.7.1/../../../../arm-none-eabi/lib/thumb\libsysbase.a(syscall_support.o)
 .comment       0x00000000       0x23 c:/users/riedle/nds/devkitpro/devkitarm/bin/../lib/gcc/arm-none-eabi/4.7.1/../../../../arm-none-eabi/lib/thumb\libsysbase.a(handle_manager.o)
 .comment       0x00000000       0x23 c:/users/riedle/nds/devkitpro/devkitarm/bin/../lib/gcc/arm-none-eabi/4.7.1/thumb\libgcc.a(_muldi3.o)
 .comment       0x00000000       0x23 c:/users/riedle/nds/devkitpro/devkitarm/bin/../lib/gcc/arm-none-eabi/4.7.1/thumb\libgcc.a(bpabi.o)
 .comment       0x00000000       0x23 c:/users/riedle/nds/devkitpro/devkitarm/bin/../lib/gcc/arm-none-eabi/4.7.1/thumb\libgcc.a(_divdi3.o)
 .comment       0x00000000       0x23 c:/users/riedle/nds/devkitpro/devkitarm/bin/../lib/gcc/arm-none-eabi/4.7.1/thumb\libgcc.a(_udivdi3.o)
 .comment       0x00000000       0x23 c:/users/riedle/nds/devkitpro/devkitarm/bin/../lib/gcc/arm-none-eabi/4.7.1/thumb/crtend.o

.ARM.attributes
                0x00000000       0x2f
 .ARM.attributes
                0x00000000       0x23 c:/users/riedle/nds/devkitpro/devkitarm/bin/../lib/gcc/arm-none-eabi/4.7.1/../../../../arm-none-eabi/lib/thumb/ds_arm9_crt0.o
 .ARM.attributes
                0x00000023       0x18 c:/users/riedle/nds/devkitpro/devkitarm/bin/../lib/gcc/arm-none-eabi/4.7.1/thumb/crti.o
 .ARM.attributes
                0x0000003b       0x32 c:/users/riedle/nds/devkitpro/devkitarm/bin/../lib/gcc/arm-none-eabi/4.7.1/thumb/crtbegin.o
 .ARM.attributes
                0x0000006d       0x29 main.o
 .ARM.attributes
                0x00000096       0x29 lapi.o
 .ARM.attributes
                0x000000bf       0x29 lauxlib.o
 .ARM.attributes
                0x000000e8       0x29 lbaselib.o
 .ARM.attributes
                0x00000111       0x29 lbitlib.o
 .ARM.attributes
                0x0000013a       0x29 lcode.o
 .ARM.attributes
                0x00000163       0x29 lcorolib.o
 .ARM.attributes
                0x0000018c       0x29 lctype.o
 .ARM.attributes
                0x000001b5       0x29 ldblib.o
 .ARM.attributes
                0x000001de       0x29 ldebug.o
 .ARM.attributes
                0x00000207       0x29 ldo.o
 .ARM.attributes
                0x00000230       0x29 ldump.o
 .ARM.attributes
                0x00000259       0x29 lfunc.o
 .ARM.attributes
                0x00000282       0x29 lgc.o
 .ARM.attributes
                0x000002ab       0x29 linit.o
 .ARM.attributes
                0x000002d4       0x29 liolib.o
 .ARM.attributes
                0x000002fd       0x29 llex.o
 .ARM.attributes
                0x00000326       0x29 lmathlib.o
 .ARM.attributes
                0x0000034f       0x29 lmem.o
 .ARM.attributes
                0x00000378       0x29 loadlib.o
 .ARM.attributes
                0x000003a1       0x29 lobject.o
 .ARM.attributes
                0x000003ca       0x29 lopcodes.o
 .ARM.attributes
                0x000003f3       0x29 loslib.o
 .ARM.attributes
                0x0000041c       0x29 lparser.o
 .ARM.attributes
                0x00000445       0x29 lstate.o
 .ARM.attributes
                0x0000046e       0x29 lstring.o
 .ARM.attributes
                0x00000497       0x29 lstrlib.o
 .ARM.attributes
                0x000004c0       0x29 ltable.o
 .ARM.attributes
                0x000004e9       0x29 ltablib.o
 .ARM.attributes
                0x00000512       0x29 ltm.o
 .ARM.attributes
                0x0000053b       0x29 lundump.o
 .ARM.attributes
                0x00000564       0x29 lvm.o
 .ARM.attributes
                0x0000058d       0x29 lzio.o
 .ARM.attributes
                0x000005b6       0x29 c:/Users/riedle/NDS/DEVKITPRO/libnds/lib\libnds9.a(console.o)
 .ARM.attributes
                0x000005df       0x29 c:/Users/riedle/NDS/DEVKITPRO/libnds/lib\libnds9.a(initSystem.o)
 .ARM.attributes
                0x00000608       0x29 c:/Users/riedle/NDS/DEVKITPRO/libnds/lib\libnds9.a(fifosystem.o)
 .ARM.attributes
                0x00000631       0x29 c:/Users/riedle/NDS/DEVKITPRO/libnds/lib\libnds9.a(interrupts.o)
 .ARM.attributes
                0x0000065a       0x29 c:/Users/riedle/NDS/DEVKITPRO/libnds/lib\libnds9.a(libnds_exit.arm.o)
 .ARM.attributes
                0x00000683       0x23 c:/Users/riedle/NDS/DEVKITPRO/libnds/lib\libnds9.a(mpu_setup.o)
 .ARM.attributes
                0x000006a6       0x1d c:/Users/riedle/NDS/DEVKITPRO/libnds/lib\libnds9.a(biosCalls.o)
 .ARM.attributes
                0x000006c3       0x1d c:/Users/riedle/NDS/DEVKITPRO/libnds/lib\libnds9.a(debugprint.o)
 .ARM.attributes
                0x000006e0       0x1d c:/Users/riedle/NDS/DEVKITPRO/libnds/lib\libnds9.a(interruptDispatcher.o)
 .ARM.attributes
                0x000006fd       0x23 c:/Users/riedle/NDS/DEVKITPRO/libnds/lib\libnds9.a(swiSoftReset.o)
 .ARM.attributes
                0x00000720       0x16 c:/Users/riedle/NDS/DEVKITPRO/libnds/lib\libnds9.a(default_font.bin.o)
 .ARM.attributes
                0x00000736       0x29 c:/Users/riedle/NDS/DEVKITPRO/libnds/lib\libnds9.a(background.o)
 .ARM.attributes
                0x0000075f       0x29 c:/Users/riedle/NDS/DEVKITPRO/libnds/lib\libnds9.a(system.o)
 .ARM.attributes
                0x00000788       0x29 c:/Users/riedle/NDS/DEVKITPRO/libnds/lib\libnds9.a(trig.o)
 .ARM.attributes
                0x000007b1       0x29 c:/Users/riedle/NDS/DEVKITPRO/libnds/lib\libnds9.a(video.o)
 .ARM.attributes
                0x000007da       0x32 c:/users/riedle/nds/devkitpro/devkitarm/bin/../lib/gcc/arm-none-eabi/4.7.1/../../../../arm-none-eabi/lib/thumb\libstdc++.a(new_op.o)
 .ARM.attributes
                0x0000080c       0x32 c:/users/riedle/nds/devkitpro/devkitarm/bin/../lib/gcc/arm-none-eabi/4.7.1/../../../../arm-none-eabi/lib/thumb\libstdc++.a(eh_call.o)
 .ARM.attributes
                0x0000083e       0x32 c:/users/riedle/nds/devkitpro/devkitarm/bin/../lib/gcc/arm-none-eabi/4.7.1/../../../../arm-none-eabi/lib/thumb\libstdc++.a(eh_personality.o)
 .ARM.attributes
                0x00000870       0x32 c:/users/riedle/nds/devkitpro/devkitarm/bin/../lib/gcc/arm-none-eabi/4.7.1/../../../../arm-none-eabi/lib/thumb\libstdc++.a(del_op.o)
 .ARM.attributes
                0x000008a2       0x32 c:/users/riedle/nds/devkitpro/devkitarm/bin/../lib/gcc/arm-none-eabi/4.7.1/../../../../arm-none-eabi/lib/thumb\libstdc++.a(eh_terminate.o)
 .ARM.attributes
                0x000008d4       0x32 c:/users/riedle/nds/devkitpro/devkitarm/bin/../lib/gcc/arm-none-eabi/4.7.1/../../../../arm-none-eabi/lib/thumb\libstdc++.a(eh_exception.o)
 .ARM.attributes
                0x00000906       0x32 c:/users/riedle/nds/devkitpro/devkitarm/bin/../lib/gcc/arm-none-eabi/4.7.1/../../../../arm-none-eabi/lib/thumb\libstdc++.a(eh_alloc.o)
 .ARM.attributes
                0x00000938       0x32 c:/users/riedle/nds/devkitpro/devkitarm/bin/../lib/gcc/arm-none-eabi/4.7.1/../../../../arm-none-eabi/lib/thumb\libstdc++.a(bad_alloc.o)
 .ARM.attributes
                0x0000096a       0x32 c:/users/riedle/nds/devkitpro/devkitarm/bin/../lib/gcc/arm-none-eabi/4.7.1/../../../../arm-none-eabi/lib/thumb\libstdc++.a(class_type_info.o)
 .ARM.attributes
                0x0000099c       0x32 c:/users/riedle/nds/devkitpro/devkitarm/bin/../lib/gcc/arm-none-eabi/4.7.1/../../../../arm-none-eabi/lib/thumb\libstdc++.a(new_handler.o)
 .ARM.attributes
                0x000009ce       0x32 c:/users/riedle/nds/devkitpro/devkitarm/bin/../lib/gcc/arm-none-eabi/4.7.1/../../../../arm-none-eabi/lib/thumb\libstdc++.a(eh_arm.o)
 .ARM.attributes
                0x00000a00       0x32 c:/users/riedle/nds/devkitpro/devkitarm/bin/../lib/gcc/arm-none-eabi/4.7.1/../../../../arm-none-eabi/lib/thumb\libstdc++.a(eh_throw.o)
 .ARM.attributes
                0x00000a32       0x32 c:/users/riedle/nds/devkitpro/devkitarm/bin/../lib/gcc/arm-none-eabi/4.7.1/../../../../arm-none-eabi/lib/thumb\libstdc++.a(pure.o)
 .ARM.attributes
                0x00000a64       0x32 c:/users/riedle/nds/devkitpro/devkitarm/bin/../lib/gcc/arm-none-eabi/4.7.1/../../../../arm-none-eabi/lib/thumb\libstdc++.a(eh_globals.o)
 .ARM.attributes
                0x00000a96       0x32 c:/users/riedle/nds/devkitpro/devkitarm/bin/../lib/gcc/arm-none-eabi/4.7.1/../../../../arm-none-eabi/lib/thumb\libstdc++.a(eh_catch.o)
 .ARM.attributes
                0x00000ac8       0x32 c:/users/riedle/nds/devkitpro/devkitarm/bin/../lib/gcc/arm-none-eabi/4.7.1/../../../../arm-none-eabi/lib/thumb\libstdc++.a(si_class_type_info.o)
 .ARM.attributes
                0x00000afa       0x32 c:/users/riedle/nds/devkitpro/devkitarm/bin/../lib/gcc/arm-none-eabi/4.7.1/../../../../arm-none-eabi/lib/thumb\libstdc++.a(eh_unex_handler.o)
 .ARM.attributes
                0x00000b2c       0x32 c:/users/riedle/nds/devkitpro/devkitarm/bin/../lib/gcc/arm-none-eabi/4.7.1/../../../../arm-none-eabi/lib/thumb\libstdc++.a(tinfo.o)
 .ARM.attributes
                0x00000b5e       0x32 c:/users/riedle/nds/devkitpro/devkitarm/bin/../lib/gcc/arm-none-eabi/4.7.1/../../../../arm-none-eabi/lib/thumb\libstdc++.a(eh_term_handler.o)
 .ARM.attributes
                0x00000b90       0x32 c:/users/riedle/nds/devkitpro/devkitarm/bin/../lib/gcc/arm-none-eabi/4.7.1/../../../../arm-none-eabi/lib/thumb\libstdc++.a(vterminate.o)
 .ARM.attributes
                0x00000bc2       0x32 c:/users/riedle/nds/devkitpro/devkitarm/bin/../lib/gcc/arm-none-eabi/4.7.1/../../../../arm-none-eabi/lib/thumb\libstdc++.a(eh_type.o)
 .ARM.attributes
                0x00000bf4       0x32 c:/users/riedle/nds/devkitpro/devkitarm/bin/../lib/gcc/arm-none-eabi/4.7.1/../../../../arm-none-eabi/lib/thumb\libstdc++.a(cp-demangle.o)
 .ARM.attributes
                0x00000c26       0x32 c:/users/riedle/nds/devkitpro/devkitarm/bin/../lib/gcc/arm-none-eabi/4.7.1/../../../../arm-none-eabi/lib/thumb\libm.a(lib_a-s_atan.o)
 .ARM.attributes
                0x00000c58       0x32 c:/users/riedle/nds/devkitpro/devkitarm/bin/../lib/gcc/arm-none-eabi/4.7.1/../../../../arm-none-eabi/lib/thumb\libm.a(lib_a-s_ceil.o)
 .ARM.attributes
                0x00000c8a       0x32 c:/users/riedle/nds/devkitpro/devkitarm/bin/../lib/gcc/arm-none-eabi/4.7.1/../../../../arm-none-eabi/lib/thumb\libm.a(lib_a-s_cos.o)
 .ARM.attributes
                0x00000cbc       0x32 c:/users/riedle/nds/devkitpro/devkitarm/bin/../lib/gcc/arm-none-eabi/4.7.1/../../../../arm-none-eabi/lib/thumb\libm.a(lib_a-s_fabs.o)
 .ARM.attributes
                0x00000cee       0x32 c:/users/riedle/nds/devkitpro/devkitarm/bin/../lib/gcc/arm-none-eabi/4.7.1/../../../../arm-none-eabi/lib/thumb\libm.a(lib_a-s_floor.o)
 .ARM.attributes
                0x00000d20       0x32 c:/users/riedle/nds/devkitpro/devkitarm/bin/../lib/gcc/arm-none-eabi/4.7.1/../../../../arm-none-eabi/lib/thumb\libm.a(lib_a-s_frexp.o)
 .ARM.attributes
                0x00000d52       0x32 c:/users/riedle/nds/devkitpro/devkitarm/bin/../lib/gcc/arm-none-eabi/4.7.1/../../../../arm-none-eabi/lib/thumb\libm.a(lib_a-s_ldexp.o)
 .ARM.attributes
                0x00000d84       0x32 c:/users/riedle/nds/devkitpro/devkitarm/bin/../lib/gcc/arm-none-eabi/4.7.1/../../../../arm-none-eabi/lib/thumb\libm.a(lib_a-s_modf.o)
 .ARM.attributes
                0x00000db6       0x32 c:/users/riedle/nds/devkitpro/devkitarm/bin/../lib/gcc/arm-none-eabi/4.7.1/../../../../arm-none-eabi/lib/thumb\libm.a(lib_a-s_scalbn.o)
 .ARM.attributes
                0x00000de8       0x32 c:/users/riedle/nds/devkitpro/devkitarm/bin/../lib/gcc/arm-none-eabi/4.7.1/../../../../arm-none-eabi/lib/thumb\libm.a(lib_a-s_sin.o)
 .ARM.attributes
                0x00000e1a       0x32 c:/users/riedle/nds/devkitpro/devkitarm/bin/../lib/gcc/arm-none-eabi/4.7.1/../../../../arm-none-eabi/lib/thumb\libm.a(lib_a-s_tanh.o)
 .ARM.attributes
                0x00000e4c       0x32 c:/users/riedle/nds/devkitpro/devkitarm/bin/../lib/gcc/arm-none-eabi/4.7.1/../../../../arm-none-eabi/lib/thumb\libm.a(lib_a-s_tan.o)
 .ARM.attributes
                0x00000e7e       0x32 c:/users/riedle/nds/devkitpro/devkitarm/bin/../lib/gcc/arm-none-eabi/4.7.1/../../../../arm-none-eabi/lib/thumb\libm.a(lib_a-w_acos.o)
 .ARM.attributes
                0x00000eb0       0x32 c:/users/riedle/nds/devkitpro/devkitarm/bin/../lib/gcc/arm-none-eabi/4.7.1/../../../../arm-none-eabi/lib/thumb\libm.a(lib_a-w_asin.o)
 .ARM.attributes
                0x00000ee2       0x32 c:/users/riedle/nds/devkitpro/devkitarm/bin/../lib/gcc/arm-none-eabi/4.7.1/../../../../arm-none-eabi/lib/thumb\libm.a(lib_a-w_atan2.o)
 .ARM.attributes
                0x00000f14       0x32 c:/users/riedle/nds/devkitpro/devkitarm/bin/../lib/gcc/arm-none-eabi/4.7.1/../../../../arm-none-eabi/lib/thumb\libm.a(lib_a-w_cosh.o)
 .ARM.attributes
                0x00000f46       0x32 c:/users/riedle/nds/devkitpro/devkitarm/bin/../lib/gcc/arm-none-eabi/4.7.1/../../../../arm-none-eabi/lib/thumb\libm.a(lib_a-w_exp.o)
 .ARM.attributes
                0x00000f78       0x32 c:/users/riedle/nds/devkitpro/devkitarm/bin/../lib/gcc/arm-none-eabi/4.7.1/../../../../arm-none-eabi/lib/thumb\libm.a(lib_a-w_fmod.o)
 .ARM.attributes
                0x00000faa       0x32 c:/users/riedle/nds/devkitpro/devkitarm/bin/../lib/gcc/arm-none-eabi/4.7.1/../../../../arm-none-eabi/lib/thumb\libm.a(lib_a-w_log10.o)
 .ARM.attributes
                0x00000fdc       0x32 c:/users/riedle/nds/devkitpro/devkitarm/bin/../lib/gcc/arm-none-eabi/4.7.1/../../../../arm-none-eabi/lib/thumb\libm.a(lib_a-w_log.o)
 .ARM.attributes
                0x0000100e       0x32 c:/users/riedle/nds/devkitpro/devkitarm/bin/../lib/gcc/arm-none-eabi/4.7.1/../../../../arm-none-eabi/lib/thumb\libm.a(lib_a-w_pow.o)
 .ARM.attributes
                0x00001040       0x32 c:/users/riedle/nds/devkitpro/devkitarm/bin/../lib/gcc/arm-none-eabi/4.7.1/../../../../arm-none-eabi/lib/thumb\libm.a(lib_a-w_sinh.o)
 .ARM.attributes
                0x00001072       0x32 c:/users/riedle/nds/devkitpro/devkitarm/bin/../lib/gcc/arm-none-eabi/4.7.1/../../../../arm-none-eabi/lib/thumb\libm.a(lib_a-w_sqrt.o)
 .ARM.attributes
                0x000010a4       0x32 c:/users/riedle/nds/devkitpro/devkitarm/bin/../lib/gcc/arm-none-eabi/4.7.1/../../../../arm-none-eabi/lib/thumb\libm.a(lib_a-e_acos.o)
 .ARM.attributes
                0x000010d6       0x32 c:/users/riedle/nds/devkitpro/devkitarm/bin/../lib/gcc/arm-none-eabi/4.7.1/../../../../arm-none-eabi/lib/thumb\libm.a(lib_a-e_asin.o)
 .ARM.attributes
                0x00001108       0x32 c:/users/riedle/nds/devkitpro/devkitarm/bin/../lib/gcc/arm-none-eabi/4.7.1/../../../../arm-none-eabi/lib/thumb\libm.a(lib_a-e_atan2.o)
 .ARM.attributes
                0x0000113a       0x32 c:/users/riedle/nds/devkitpro/devkitarm/bin/../lib/gcc/arm-none-eabi/4.7.1/../../../../arm-none-eabi/lib/thumb\libm.a(lib_a-e_cosh.o)
 .ARM.attributes
                0x0000116c       0x32 c:/users/riedle/nds/devkitpro/devkitarm/bin/../lib/gcc/arm-none-eabi/4.7.1/../../../../arm-none-eabi/lib/thumb\libm.a(lib_a-e_exp.o)
 .ARM.attributes
                0x0000119e       0x32 c:/users/riedle/nds/devkitpro/devkitarm/bin/../lib/gcc/arm-none-eabi/4.7.1/../../../../arm-none-eabi/lib/thumb\libm.a(lib_a-e_fmod.o)
 .ARM.attributes
                0x000011d0       0x32 c:/users/riedle/nds/devkitpro/devkitarm/bin/../lib/gcc/arm-none-eabi/4.7.1/../../../../arm-none-eabi/lib/thumb\libm.a(lib_a-e_log10.o)
 .ARM.attributes
                0x00001202       0x32 c:/users/riedle/nds/devkitpro/devkitarm/bin/../lib/gcc/arm-none-eabi/4.7.1/../../../../arm-none-eabi/lib/thumb\libm.a(lib_a-e_log.o)
 .ARM.attributes
                0x00001234       0x32 c:/users/riedle/nds/devkitpro/devkitarm/bin/../lib/gcc/arm-none-eabi/4.7.1/../../../../arm-none-eabi/lib/thumb\libm.a(lib_a-e_pow.o)
 .ARM.attributes
                0x00001266       0x32 c:/users/riedle/nds/devkitpro/devkitarm/bin/../lib/gcc/arm-none-eabi/4.7.1/../../../../arm-none-eabi/lib/thumb\libm.a(lib_a-e_rem_pio2.o)
 .ARM.attributes
                0x00001298       0x32 c:/users/riedle/nds/devkitpro/devkitarm/bin/../lib/gcc/arm-none-eabi/4.7.1/../../../../arm-none-eabi/lib/thumb\libm.a(lib_a-e_sinh.o)
 .ARM.attributes
                0x000012ca       0x32 c:/users/riedle/nds/devkitpro/devkitarm/bin/../lib/gcc/arm-none-eabi/4.7.1/../../../../arm-none-eabi/lib/thumb\libm.a(lib_a-e_sqrt.o)
 .ARM.attributes
                0x000012fc       0x32 c:/users/riedle/nds/devkitpro/devkitarm/bin/../lib/gcc/arm-none-eabi/4.7.1/../../../../arm-none-eabi/lib/thumb\libm.a(lib_a-k_cos.o)
 .ARM.attributes
                0x0000132e       0x32 c:/users/riedle/nds/devkitpro/devkitarm/bin/../lib/gcc/arm-none-eabi/4.7.1/../../../../arm-none-eabi/lib/thumb\libm.a(lib_a-k_rem_pio2.o)
 .ARM.attributes
                0x00001360       0x32 c:/users/riedle/nds/devkitpro/devkitarm/bin/../lib/gcc/arm-none-eabi/4.7.1/../../../../arm-none-eabi/lib/thumb\libm.a(lib_a-k_sin.o)
 .ARM.attributes
                0x00001392       0x32 c:/users/riedle/nds/devkitpro/devkitarm/bin/../lib/gcc/arm-none-eabi/4.7.1/../../../../arm-none-eabi/lib/thumb\libm.a(lib_a-k_tan.o)
 .ARM.attributes
                0x000013c4       0x32 c:/users/riedle/nds/devkitpro/devkitarm/bin/../lib/gcc/arm-none-eabi/4.7.1/../../../../arm-none-eabi/lib/thumb\libm.a(lib_a-s_copysign.o)
 .ARM.attributes
                0x000013f6       0x32 c:/users/riedle/nds/devkitpro/devkitarm/bin/../lib/gcc/arm-none-eabi/4.7.1/../../../../arm-none-eabi/lib/thumb\libm.a(lib_a-s_expm1.o)
 .ARM.attributes
                0x00001428       0x32 c:/users/riedle/nds/devkitpro/devkitarm/bin/../lib/gcc/arm-none-eabi/4.7.1/../../../../arm-none-eabi/lib/thumb\libm.a(lib_a-s_finite.o)
 .ARM.attributes
                0x0000145a       0x32 c:/users/riedle/nds/devkitpro/devkitarm/bin/../lib/gcc/arm-none-eabi/4.7.1/../../../../arm-none-eabi/lib/thumb\libm.a(lib_a-s_fpclassify.o)
 .ARM.attributes
                0x0000148c       0x32 c:/users/riedle/nds/devkitpro/devkitarm/bin/../lib/gcc/arm-none-eabi/4.7.1/../../../../arm-none-eabi/lib/thumb\libm.a(lib_a-s_lib_ver.o)
 .ARM.attributes
                0x000014be       0x32 c:/users/riedle/nds/devkitpro/devkitarm/bin/../lib/gcc/arm-none-eabi/4.7.1/../../../../arm-none-eabi/lib/thumb\libm.a(lib_a-s_matherr.o)
 .ARM.attributes
                0x000014f0       0x32 c:/users/riedle/nds/devkitpro/devkitarm/bin/../lib/gcc/arm-none-eabi/4.7.1/../../../../arm-none-eabi/lib/thumb\libm.a(lib_a-s_nan.o)
 .ARM.attributes
                0x00001522       0x32 c:/users/riedle/nds/devkitpro/devkitarm/bin/../lib/gcc/arm-none-eabi/4.7.1/../../../../arm-none-eabi/lib/thumb\libm.a(lib_a-s_rint.o)
 .ARM.attributes
                0x00001554       0x1a c:/users/riedle/nds/devkitpro/devkitarm/bin/../lib/gcc/arm-none-eabi/4.7.1/thumb\libgcc.a(_udivsi3.o)
 .ARM.attributes
                0x0000156e       0x1a c:/users/riedle/nds/devkitpro/devkitarm/bin/../lib/gcc/arm-none-eabi/4.7.1/thumb\libgcc.a(_divsi3.o)
 .ARM.attributes
                0x00001588       0x18 c:/users/riedle/nds/devkitpro/devkitarm/bin/../lib/gcc/arm-none-eabi/4.7.1/thumb\libgcc.a(_dvmd_tls.o)
 .ARM.attributes
                0x000015a0       0x1a c:/users/riedle/nds/devkitpro/devkitarm/bin/../lib/gcc/arm-none-eabi/4.7.1/thumb\libgcc.a(_arm_addsubdf3.o)
 .ARM.attributes
                0x000015ba       0x1a c:/users/riedle/nds/devkitpro/devkitarm/bin/../lib/gcc/arm-none-eabi/4.7.1/thumb\libgcc.a(_arm_muldivdf3.o)
 .ARM.attributes
                0x000015d4       0x1a c:/users/riedle/nds/devkitpro/devkitarm/bin/../lib/gcc/arm-none-eabi/4.7.1/thumb\libgcc.a(_arm_cmpdf2.o)
 .ARM.attributes
                0x000015ee       0x1a c:/users/riedle/nds/devkitpro/devkitarm/bin/../lib/gcc/arm-none-eabi/4.7.1/thumb\libgcc.a(_arm_fixdfsi.o)
 .ARM.attributes
                0x00001608       0x1a c:/users/riedle/nds/devkitpro/devkitarm/bin/../lib/gcc/arm-none-eabi/4.7.1/thumb\libgcc.a(_arm_fixunsdfsi.o)
 .ARM.attributes
                0x00001622       0x32 c:/users/riedle/nds/devkitpro/devkitarm/bin/../lib/gcc/arm-none-eabi/4.7.1/thumb\libgcc.a(unwind-arm.o)
 .ARM.attributes
                0x00001654       0x1e c:/users/riedle/nds/devkitpro/devkitarm/bin/../lib/gcc/arm-none-eabi/4.7.1/thumb\libgcc.a(libunwind.o)
 .ARM.attributes
                0x00001672       0x32 c:/users/riedle/nds/devkitpro/devkitarm/bin/../lib/gcc/arm-none-eabi/4.7.1/thumb\libgcc.a(pr-support.o)
 .ARM.attributes
                0x000016a4       0x32 c:/users/riedle/nds/devkitpro/devkitarm/bin/../lib/gcc/arm-none-eabi/4.7.1/../../../../arm-none-eabi/lib/thumb\libg.a(lib_a-abort.o)
 .ARM.attributes
                0x000016d6       0x32 c:/users/riedle/nds/devkitpro/devkitarm/bin/../lib/gcc/arm-none-eabi/4.7.1/../../../../arm-none-eabi/lib/thumb\libg.a(lib_a-bsearch.o)
 .ARM.attributes
                0x00001708       0x32 c:/users/riedle/nds/devkitpro/devkitarm/bin/../lib/gcc/arm-none-eabi/4.7.1/../../../../arm-none-eabi/lib/thumb\libg.a(lib_a-clock.o)
 .ARM.attributes
                0x0000173a       0x32 c:/users/riedle/nds/devkitpro/devkitarm/bin/../lib/gcc/arm-none-eabi/4.7.1/../../../../arm-none-eabi/lib/thumb\libg.a(lib_a-ctype_.o)
 .ARM.attributes
                0x0000176c       0x32 c:/users/riedle/nds/devkitpro/devkitarm/bin/../lib/gcc/arm-none-eabi/4.7.1/../../../../arm-none-eabi/lib/thumb\libg.a(lib_a-difftime.o)
 .ARM.attributes
                0x0000179e       0x32 c:/users/riedle/nds/devkitpro/devkitarm/bin/../lib/gcc/arm-none-eabi/4.7.1/../../../../arm-none-eabi/lib/thumb\libg.a(lib_a-errno.o)
 .ARM.attributes
                0x000017d0       0x32 c:/users/riedle/nds/devkitpro/devkitarm/bin/../lib/gcc/arm-none-eabi/4.7.1/../../../../arm-none-eabi/lib/thumb\libg.a(lib_a-exit.o)
 .ARM.attributes
                0x00001802       0x32 c:/users/riedle/nds/devkitpro/devkitarm/bin/../lib/gcc/arm-none-eabi/4.7.1/../../../../arm-none-eabi/lib/thumb\libg.a(lib_a-fclose.o)
 .ARM.attributes
                0x00001834       0x32 c:/users/riedle/nds/devkitpro/devkitarm/bin/../lib/gcc/arm-none-eabi/4.7.1/../../../../arm-none-eabi/lib/thumb\libg.a(lib_a-fflush.o)
 .ARM.attributes
                0x00001866       0x32 c:/users/riedle/nds/devkitpro/devkitarm/bin/../lib/gcc/arm-none-eabi/4.7.1/../../../../arm-none-eabi/lib/thumb\libg.a(lib_a-fgets.o)
 .ARM.attributes
                0x00001898       0x32 c:/users/riedle/nds/devkitpro/devkitarm/bin/../lib/gcc/arm-none-eabi/4.7.1/../../../../arm-none-eabi/lib/thumb\libg.a(lib_a-findfp.o)
 .ARM.attributes
                0x000018ca       0x32 c:/users/riedle/nds/devkitpro/devkitarm/bin/../lib/gcc/arm-none-eabi/4.7.1/../../../../arm-none-eabi/lib/thumb\libg.a(lib_a-fopen.o)
 .ARM.attributes
                0x000018fc       0x32 c:/users/riedle/nds/devkitpro/devkitarm/bin/../lib/gcc/arm-none-eabi/4.7.1/../../../../arm-none-eabi/lib/thumb\libg.a(lib_a-fprintf.o)
 .ARM.attributes
                0x0000192e       0x32 c:/users/riedle/nds/devkitpro/devkitarm/bin/../lib/gcc/arm-none-eabi/4.7.1/../../../../arm-none-eabi/lib/thumb\libg.a(lib_a-fputc.o)
 .ARM.attributes
                0x00001960       0x32 c:/users/riedle/nds/devkitpro/devkitarm/bin/../lib/gcc/arm-none-eabi/4.7.1/../../../../arm-none-eabi/lib/thumb\libg.a(lib_a-fputs.o)
 .ARM.attributes
                0x00001992       0x32 c:/users/riedle/nds/devkitpro/devkitarm/bin/../lib/gcc/arm-none-eabi/4.7.1/../../../../arm-none-eabi/lib/thumb\libg.a(lib_a-fread.o)
 .ARM.attributes
                0x000019c4       0x32 c:/users/riedle/nds/devkitpro/devkitarm/bin/../lib/gcc/arm-none-eabi/4.7.1/../../../../arm-none-eabi/lib/thumb\libg.a(lib_a-freer.o)
 .ARM.attributes
                0x000019f6       0x32 c:/users/riedle/nds/devkitpro/devkitarm/bin/../lib/gcc/arm-none-eabi/4.7.1/../../../../arm-none-eabi/lib/thumb\libg.a(lib_a-freopen.o)
 .ARM.attributes
                0x00001a28       0x32 c:/users/riedle/nds/devkitpro/devkitarm/bin/../lib/gcc/arm-none-eabi/4.7.1/../../../../arm-none-eabi/lib/thumb\libg.a(lib_a-fscanf.o)
 .ARM.attributes
                0x00001a5a       0x32 c:/users/riedle/nds/devkitpro/devkitarm/bin/../lib/gcc/arm-none-eabi/4.7.1/../../../../arm-none-eabi/lib/thumb\libg.a(lib_a-fseek.o)
 .ARM.attributes
                0x00001a8c       0x32 c:/users/riedle/nds/devkitpro/devkitarm/bin/../lib/gcc/arm-none-eabi/4.7.1/../../../../arm-none-eabi/lib/thumb\libg.a(lib_a-ftell.o)
 .ARM.attributes
                0x00001abe       0x32 c:/users/riedle/nds/devkitpro/devkitarm/bin/../lib/gcc/arm-none-eabi/4.7.1/../../../../arm-none-eabi/lib/thumb\libg.a(lib_a-fvwrite.o)
 .ARM.attributes
                0x00001af0       0x32 c:/users/riedle/nds/devkitpro/devkitarm/bin/../lib/gcc/arm-none-eabi/4.7.1/../../../../arm-none-eabi/lib/thumb\libg.a(lib_a-fwalk.o)
 .ARM.attributes
                0x00001b22       0x32 c:/users/riedle/nds/devkitpro/devkitarm/bin/../lib/gcc/arm-none-eabi/4.7.1/../../../../arm-none-eabi/lib/thumb\libg.a(lib_a-fwrite.o)
 .ARM.attributes
                0x00001b54       0x32 c:/users/riedle/nds/devkitpro/devkitarm/bin/../lib/gcc/arm-none-eabi/4.7.1/../../../../arm-none-eabi/lib/thumb\libg.a(lib_a-getenv.o)
 .ARM.attributes
                0x00001b86       0x32 c:/users/riedle/nds/devkitpro/devkitarm/bin/../lib/gcc/arm-none-eabi/4.7.1/../../../../arm-none-eabi/lib/thumb\libg.a(lib_a-getenv_r.o)
 .ARM.attributes
                0x00001bb8       0x32 c:/users/riedle/nds/devkitpro/devkitarm/bin/../lib/gcc/arm-none-eabi/4.7.1/../../../../arm-none-eabi/lib/thumb\libg.a(lib_a-gmtime.o)
 .ARM.attributes
                0x00001bea       0x32 c:/users/riedle/nds/devkitpro/devkitarm/bin/../lib/gcc/arm-none-eabi/4.7.1/../../../../arm-none-eabi/lib/thumb\libg.a(lib_a-gmtime_r.o)
 .ARM.attributes
                0x00001c1c       0x32 c:/users/riedle/nds/devkitpro/devkitarm/bin/../lib/gcc/arm-none-eabi/4.7.1/../../../../arm-none-eabi/lib/thumb\libg.a(lib_a-impure.o)
 .ARM.attributes
                0x00001c4e       0x32 c:/users/riedle/nds/devkitpro/devkitarm/bin/../lib/gcc/arm-none-eabi/4.7.1/../../../../arm-none-eabi/lib/thumb\libg.a(lib_a-init.o)
 .ARM.attributes
                0x00001c80       0x32 c:/users/riedle/nds/devkitpro/devkitarm/bin/../lib/gcc/arm-none-eabi/4.7.1/../../../../arm-none-eabi/lib/thumb\libg.a(lib_a-iprintf.o)
 .ARM.attributes
                0x00001cb2       0x32 c:/users/riedle/nds/devkitpro/devkitarm/bin/../lib/gcc/arm-none-eabi/4.7.1/../../../../arm-none-eabi/lib/thumb\libg.a(lib_a-lcltime.o)
 .ARM.attributes
                0x00001ce4       0x32 c:/users/riedle/nds/devkitpro/devkitarm/bin/../lib/gcc/arm-none-eabi/4.7.1/../../../../arm-none-eabi/lib/thumb\libg.a(lib_a-lcltime_r.o)
 .ARM.attributes
                0x00001d16       0x32 c:/users/riedle/nds/devkitpro/devkitarm/bin/../lib/gcc/arm-none-eabi/4.7.1/../../../../arm-none-eabi/lib/thumb\libg.a(lib_a-locale.o)
 .ARM.attributes
                0x00001d48       0x32 c:/users/riedle/nds/devkitpro/devkitarm/bin/../lib/gcc/arm-none-eabi/4.7.1/../../../../arm-none-eabi/lib/thumb\libg.a(lib_a-makebuf.o)
 .ARM.attributes
                0x00001d7a       0x32 c:/users/riedle/nds/devkitpro/devkitarm/bin/../lib/gcc/arm-none-eabi/4.7.1/../../../../arm-none-eabi/lib/thumb\libg.a(lib_a-malloc.o)
 .ARM.attributes
                0x00001dac       0x32 c:/users/riedle/nds/devkitpro/devkitarm/bin/../lib/gcc/arm-none-eabi/4.7.1/../../../../arm-none-eabi/lib/thumb\libg.a(lib_a-mallocr.o)
 .ARM.attributes
                0x00001dde       0x32 c:/users/riedle/nds/devkitpro/devkitarm/bin/../lib/gcc/arm-none-eabi/4.7.1/../../../../arm-none-eabi/lib/thumb\libg.a(lib_a-mbtowc_r.o)
 .ARM.attributes
                0x00001e10       0x32 c:/users/riedle/nds/devkitpro/devkitarm/bin/../lib/gcc/arm-none-eabi/4.7.1/../../../../arm-none-eabi/lib/thumb\libg.a(lib_a-memchr-stub.o)
 .ARM.attributes
                0x00001e42       0x32 c:/users/riedle/nds/devkitpro/devkitarm/bin/../lib/gcc/arm-none-eabi/4.7.1/../../../../arm-none-eabi/lib/thumb\libg.a(lib_a-memcmp.o)
 .ARM.attributes
                0x00001e74       0x32 c:/users/riedle/nds/devkitpro/devkitarm/bin/../lib/gcc/arm-none-eabi/4.7.1/../../../../arm-none-eabi/lib/thumb\libg.a(lib_a-memcpy-stub.o)
 .ARM.attributes
                0x00001ea6       0x32 c:/users/riedle/nds/devkitpro/devkitarm/bin/../lib/gcc/arm-none-eabi/4.7.1/../../../../arm-none-eabi/lib/thumb\libg.a(lib_a-memmove.o)
 .ARM.attributes
                0x00001ed8       0x32 c:/users/riedle/nds/devkitpro/devkitarm/bin/../lib/gcc/arm-none-eabi/4.7.1/../../../../arm-none-eabi/lib/thumb\libg.a(lib_a-memset.o)
 .ARM.attributes
                0x00001f0a       0x32 c:/users/riedle/nds/devkitpro/devkitarm/bin/../lib/gcc/arm-none-eabi/4.7.1/../../../../arm-none-eabi/lib/thumb\libg.a(lib_a-mktime.o)
 .ARM.attributes
                0x00001f3c       0x32 c:/users/riedle/nds/devkitpro/devkitarm/bin/../lib/gcc/arm-none-eabi/4.7.1/../../../../arm-none-eabi/lib/thumb\libg.a(lib_a-mktm_r.o)
 .ARM.attributes
                0x00001f6e       0x32 c:/users/riedle/nds/devkitpro/devkitarm/bin/../lib/gcc/arm-none-eabi/4.7.1/../../../../arm-none-eabi/lib/thumb\libg.a(lib_a-mlock.o)
 .ARM.attributes
                0x00001fa0       0x32 c:/users/riedle/nds/devkitpro/devkitarm/bin/../lib/gcc/arm-none-eabi/4.7.1/../../../../arm-none-eabi/lib/thumb\libg.a(lib_a-printf.o)
 .ARM.attributes
                0x00001fd2       0x32 c:/users/riedle/nds/devkitpro/devkitarm/bin/../lib/gcc/arm-none-eabi/4.7.1/../../../../arm-none-eabi/lib/thumb\libg.a(lib_a-putc.o)
 .ARM.attributes
                0x00002004       0x32 c:/users/riedle/nds/devkitpro/devkitarm/bin/../lib/gcc/arm-none-eabi/4.7.1/../../../../arm-none-eabi/lib/thumb\libg.a(lib_a-rand.o)
 .ARM.attributes
                0x00002036       0x32 c:/users/riedle/nds/devkitpro/devkitarm/bin/../lib/gcc/arm-none-eabi/4.7.1/../../../../arm-none-eabi/lib/thumb\libg.a(lib_a-realloc.o)
 .ARM.attributes
                0x00002068       0x32 c:/users/riedle/nds/devkitpro/devkitarm/bin/../lib/gcc/arm-none-eabi/4.7.1/../../../../arm-none-eabi/lib/thumb\libg.a(lib_a-reallocr.o)
 .ARM.attributes
                0x0000209a       0x32 c:/users/riedle/nds/devkitpro/devkitarm/bin/../lib/gcc/arm-none-eabi/4.7.1/../../../../arm-none-eabi/lib/thumb\libg.a(lib_a-refill.o)
 .ARM.attributes
                0x000020cc       0x32 c:/users/riedle/nds/devkitpro/devkitarm/bin/../lib/gcc/arm-none-eabi/4.7.1/../../../../arm-none-eabi/lib/thumb\libg.a(lib_a-remove.o)
 .ARM.attributes
                0x000020fe       0x32 c:/users/riedle/nds/devkitpro/devkitarm/bin/../lib/gcc/arm-none-eabi/4.7.1/../../../../arm-none-eabi/lib/thumb\libg.a(lib_a-rename.o)
 .ARM.attributes
                0x00002130       0x32 c:/users/riedle/nds/devkitpro/devkitarm/bin/../lib/gcc/arm-none-eabi/4.7.1/../../../../arm-none-eabi/lib/thumb\libg.a(lib_a-rget.o)
 .ARM.attributes
                0x00002162       0x18 c:/users/riedle/nds/devkitpro/devkitarm/bin/../lib/gcc/arm-none-eabi/4.7.1/../../../../arm-none-eabi/lib/thumb\libg.a(lib_a-setjmp.o)
 .ARM.attributes
                0x0000217a       0x32 c:/users/riedle/nds/devkitpro/devkitarm/bin/../lib/gcc/arm-none-eabi/4.7.1/../../../../arm-none-eabi/lib/thumb\libg.a(lib_a-setvbuf.o)
 .ARM.attributes
                0x000021ac       0x32 c:/users/riedle/nds/devkitpro/devkitarm/bin/../lib/gcc/arm-none-eabi/4.7.1/../../../../arm-none-eabi/lib/thumb\libg.a(lib_a-signal.o)
 .ARM.attributes
                0x000021de       0x32 c:/users/riedle/nds/devkitpro/devkitarm/bin/../lib/gcc/arm-none-eabi/4.7.1/../../../../arm-none-eabi/lib/thumb\libg.a(lib_a-siscanf.o)
 .ARM.attributes
                0x00002210       0x32 c:/users/riedle/nds/devkitpro/devkitarm/bin/../lib/gcc/arm-none-eabi/4.7.1/../../../../arm-none-eabi/lib/thumb\libg.a(lib_a-sprintf.o)
 .ARM.attributes
                0x00002242       0x32 c:/users/riedle/nds/devkitpro/devkitarm/bin/../lib/gcc/arm-none-eabi/4.7.1/../../../../arm-none-eabi/lib/thumb\libg.a(lib_a-stdio.o)
 .ARM.attributes
                0x00002274       0x32 c:/users/riedle/nds/devkitpro/devkitarm/bin/../lib/gcc/arm-none-eabi/4.7.1/../../../../arm-none-eabi/lib/thumb\libg.a(lib_a-strcasecmp.o)
 .ARM.attributes
                0x000022a6       0x32 c:/users/riedle/nds/devkitpro/devkitarm/bin/../lib/gcc/arm-none-eabi/4.7.1/../../../../arm-none-eabi/lib/thumb\libg.a(lib_a-strcat.o)
 .ARM.attributes
                0x000022d8       0x32 c:/users/riedle/nds/devkitpro/devkitarm/bin/../lib/gcc/arm-none-eabi/4.7.1/../../../../arm-none-eabi/lib/thumb\libg.a(lib_a-strchr.o)
 .ARM.attributes
                0x0000230a       0x32 c:/users/riedle/nds/devkitpro/devkitarm/bin/../lib/gcc/arm-none-eabi/4.7.1/../../../../arm-none-eabi/lib/thumb\libg.a(lib_a-strcmp.o)
 .ARM.attributes
                0x0000233c       0x32 c:/users/riedle/nds/devkitpro/devkitarm/bin/../lib/gcc/arm-none-eabi/4.7.1/../../../../arm-none-eabi/lib/thumb\libg.a(lib_a-strcoll.o)
 .ARM.attributes
                0x0000236e       0x32 c:/users/riedle/nds/devkitpro/devkitarm/bin/../lib/gcc/arm-none-eabi/4.7.1/../../../../arm-none-eabi/lib/thumb\libg.a(lib_a-strcpy.o)
 .ARM.attributes
                0x000023a0       0x32 c:/users/riedle/nds/devkitpro/devkitarm/bin/../lib/gcc/arm-none-eabi/4.7.1/../../../../arm-none-eabi/lib/thumb\libg.a(lib_a-strerror.o)
 .ARM.attributes
                0x000023d2       0x32 c:/users/riedle/nds/devkitpro/devkitarm/bin/../lib/gcc/arm-none-eabi/4.7.1/../../../../arm-none-eabi/lib/thumb\libg.a(lib_a-strftime.o)
 .ARM.attributes
                0x00002404       0x32 c:/users/riedle/nds/devkitpro/devkitarm/bin/../lib/gcc/arm-none-eabi/4.7.1/../../../../arm-none-eabi/lib/thumb\libg.a(lib_a-strlcpy.o)
 .ARM.attributes
                0x00002436       0x32 c:/users/riedle/nds/devkitpro/devkitarm/bin/../lib/gcc/arm-none-eabi/4.7.1/../../../../arm-none-eabi/lib/thumb\libg.a(lib_a-strlen.o)
 .ARM.attributes
                0x00002468       0x32 c:/users/riedle/nds/devkitpro/devkitarm/bin/../lib/gcc/arm-none-eabi/4.7.1/../../../../arm-none-eabi/lib/thumb\libg.a(lib_a-strncasecmp.o)
 .ARM.attributes
                0x0000249a       0x32 c:/users/riedle/nds/devkitpro/devkitarm/bin/../lib/gcc/arm-none-eabi/4.7.1/../../../../arm-none-eabi/lib/thumb\libg.a(lib_a-strncmp.o)
 .ARM.attributes
                0x000024cc       0x32 c:/users/riedle/nds/devkitpro/devkitarm/bin/../lib/gcc/arm-none-eabi/4.7.1/../../../../arm-none-eabi/lib/thumb\libg.a(lib_a-strncpy.o)
 .ARM.attributes
                0x000024fe       0x32 c:/users/riedle/nds/devkitpro/devkitarm/bin/../lib/gcc/arm-none-eabi/4.7.1/../../../../arm-none-eabi/lib/thumb\libg.a(lib_a-strpbrk.o)
 .ARM.attributes
                0x00002530       0x32 c:/users/riedle/nds/devkitpro/devkitarm/bin/../lib/gcc/arm-none-eabi/4.7.1/../../../../arm-none-eabi/lib/thumb\libg.a(lib_a-strspn.o)
 .ARM.attributes
                0x00002562       0x32 c:/users/riedle/nds/devkitpro/devkitarm/bin/../lib/gcc/arm-none-eabi/4.7.1/../../../../arm-none-eabi/lib/thumb\libg.a(lib_a-strstr.o)
 .ARM.attributes
                0x00002594       0x32 c:/users/riedle/nds/devkitpro/devkitarm/bin/../lib/gcc/arm-none-eabi/4.7.1/../../../../arm-none-eabi/lib/thumb\libg.a(lib_a-strtod.o)
 .ARM.attributes
                0x000025c6       0x32 c:/users/riedle/nds/devkitpro/devkitarm/bin/../lib/gcc/arm-none-eabi/4.7.1/../../../../arm-none-eabi/lib/thumb\libg.a(lib_a-strtol.o)
 .ARM.attributes
                0x000025f8       0x32 c:/users/riedle/nds/devkitpro/devkitarm/bin/../lib/gcc/arm-none-eabi/4.7.1/../../../../arm-none-eabi/lib/thumb\libg.a(lib_a-strtoul.o)
 .ARM.attributes
                0x0000262a       0x32 c:/users/riedle/nds/devkitpro/devkitarm/bin/../lib/gcc/arm-none-eabi/4.7.1/../../../../arm-none-eabi/lib/thumb\libg.a(lib_a-svfiscanf.o)
 .ARM.attributes
                0x0000265c       0x32 c:/users/riedle/nds/devkitpro/devkitarm/bin/../lib/gcc/arm-none-eabi/4.7.1/../../../../arm-none-eabi/lib/thumb\libg.a(lib_a-svfprintf.o)
 .ARM.attributes
                0x0000268e       0x32 c:/users/riedle/nds/devkitpro/devkitarm/bin/../lib/gcc/arm-none-eabi/4.7.1/../../../../arm-none-eabi/lib/thumb\libg.a(lib_a-system.o)
 .ARM.attributes
                0x000026c0       0x32 c:/users/riedle/nds/devkitpro/devkitarm/bin/../lib/gcc/arm-none-eabi/4.7.1/../../../../arm-none-eabi/lib/thumb\libg.a(lib_a-syswrite.o)
 .ARM.attributes
                0x000026f2       0x32 c:/users/riedle/nds/devkitpro/devkitarm/bin/../lib/gcc/arm-none-eabi/4.7.1/../../../../arm-none-eabi/lib/thumb\libg.a(lib_a-timelocal.o)
 .ARM.attributes
                0x00002724       0x32 c:/users/riedle/nds/devkitpro/devkitarm/bin/../lib/gcc/arm-none-eabi/4.7.1/../../../../arm-none-eabi/lib/thumb\libg.a(lib_a-time.o)
 .ARM.attributes
                0x00002756       0x32 c:/users/riedle/nds/devkitpro/devkitarm/bin/../lib/gcc/arm-none-eabi/4.7.1/../../../../arm-none-eabi/lib/thumb\libg.a(lib_a-tmpfile.o)
 .ARM.attributes
                0x00002788       0x32 c:/users/riedle/nds/devkitpro/devkitarm/bin/../lib/gcc/arm-none-eabi/4.7.1/../../../../arm-none-eabi/lib/thumb\libg.a(lib_a-tmpnam.o)
 .ARM.attributes
                0x000027ba       0x32 c:/users/riedle/nds/devkitpro/devkitarm/bin/../lib/gcc/arm-none-eabi/4.7.1/../../../../arm-none-eabi/lib/thumb\libg.a(lib_a-tzlock.o)
 .ARM.attributes
                0x000027ec       0x32 c:/users/riedle/nds/devkitpro/devkitarm/bin/../lib/gcc/arm-none-eabi/4.7.1/../../../../arm-none-eabi/lib/thumb\libg.a(lib_a-tzvars.o)
 .ARM.attributes
                0x0000281e       0x32 c:/users/riedle/nds/devkitpro/devkitarm/bin/../lib/gcc/arm-none-eabi/4.7.1/../../../../arm-none-eabi/lib/thumb\libg.a(lib_a-ungetc.o)
 .ARM.attributes
                0x00002850       0x32 c:/users/riedle/nds/devkitpro/devkitarm/bin/../lib/gcc/arm-none-eabi/4.7.1/../../../../arm-none-eabi/lib/thumb\libg.a(lib_a-u_strerr.o)
 .ARM.attributes
                0x00002882       0x32 c:/users/riedle/nds/devkitpro/devkitarm/bin/../lib/gcc/arm-none-eabi/4.7.1/../../../../arm-none-eabi/lib/thumb\libg.a(lib_a-vfiprintf.o)
 .ARM.attributes
                0x000028b4       0x32 c:/users/riedle/nds/devkitpro/devkitarm/bin/../lib/gcc/arm-none-eabi/4.7.1/../../../../arm-none-eabi/lib/thumb\libg.a(lib_a-vfprintf.o)
 .ARM.attributes
                0x000028e6       0x32 c:/users/riedle/nds/devkitpro/devkitarm/bin/../lib/gcc/arm-none-eabi/4.7.1/../../../../arm-none-eabi/lib/thumb\libg.a(lib_a-vfscanf.o)
 .ARM.attributes
                0x00002918       0x32 c:/users/riedle/nds/devkitpro/devkitarm/bin/../lib/gcc/arm-none-eabi/4.7.1/../../../../arm-none-eabi/lib/thumb\libg.a(lib_a-wbuf.o)
 .ARM.attributes
                0x0000294a       0x32 c:/users/riedle/nds/devkitpro/devkitarm/bin/../lib/gcc/arm-none-eabi/4.7.1/../../../../arm-none-eabi/lib/thumb\libg.a(lib_a-wcrtomb.o)
 .ARM.attributes
                0x0000297c       0x32 c:/users/riedle/nds/devkitpro/devkitarm/bin/../lib/gcc/arm-none-eabi/4.7.1/../../../../arm-none-eabi/lib/thumb\libg.a(lib_a-wcsrtombs.o)
 .ARM.attributes
                0x000029ae       0x32 c:/users/riedle/nds/devkitpro/devkitarm/bin/../lib/gcc/arm-none-eabi/4.7.1/../../../../arm-none-eabi/lib/thumb\libg.a(lib_a-wctomb_r.o)
 .ARM.attributes
                0x000029e0       0x32 c:/users/riedle/nds/devkitpro/devkitarm/bin/../lib/gcc/arm-none-eabi/4.7.1/../../../../arm-none-eabi/lib/thumb\libg.a(lib_a-wsetup.o)
 .ARM.attributes
                0x00002a12       0x32 c:/users/riedle/nds/devkitpro/devkitarm/bin/../lib/gcc/arm-none-eabi/4.7.1/../../../../arm-none-eabi/lib/thumb\libg.a(lib_a-abs.o)
 .ARM.attributes
                0x00002a44       0x32 c:/users/riedle/nds/devkitpro/devkitarm/bin/../lib/gcc/arm-none-eabi/4.7.1/../../../../arm-none-eabi/lib/thumb\libg.a(lib_a-__call_atexit.o)
 .ARM.attributes
                0x00002a76       0x32 c:/users/riedle/nds/devkitpro/devkitarm/bin/../lib/gcc/arm-none-eabi/4.7.1/../../../../arm-none-eabi/lib/thumb\libg.a(lib_a-div.o)
 .ARM.attributes
                0x00002aa8       0x32 c:/users/riedle/nds/devkitpro/devkitarm/bin/../lib/gcc/arm-none-eabi/4.7.1/../../../../arm-none-eabi/lib/thumb\libg.a(lib_a-dtoa.o)
 .ARM.attributes
                0x00002ada       0x32 c:/users/riedle/nds/devkitpro/devkitarm/bin/../lib/gcc/arm-none-eabi/4.7.1/../../../../arm-none-eabi/lib/thumb\libg.a(lib_a-environ.o)
 .ARM.attributes
                0x00002b0c       0x32 c:/users/riedle/nds/devkitpro/devkitarm/bin/../lib/gcc/arm-none-eabi/4.7.1/../../../../arm-none-eabi/lib/thumb\libg.a(lib_a-envlock.o)
 .ARM.attributes
                0x00002b3e       0x32 c:/users/riedle/nds/devkitpro/devkitarm/bin/../lib/gcc/arm-none-eabi/4.7.1/../../../../arm-none-eabi/lib/thumb\libg.a(lib_a-fdopen.o)
 .ARM.attributes
                0x00002b70       0x32 c:/users/riedle/nds/devkitpro/devkitarm/bin/../lib/gcc/arm-none-eabi/4.7.1/../../../../arm-none-eabi/lib/thumb\libg.a(lib_a-flags.o)
 .ARM.attributes
                0x00002ba2       0x32 c:/users/riedle/nds/devkitpro/devkitarm/bin/../lib/gcc/arm-none-eabi/4.7.1/../../../../arm-none-eabi/lib/thumb\libg.a(lib_a-fputwc.o)
 .ARM.attributes
                0x00002bd4       0x32 c:/users/riedle/nds/devkitpro/devkitarm/bin/../lib/gcc/arm-none-eabi/4.7.1/../../../../arm-none-eabi/lib/thumb\libg.a(lib_a-gdtoa-gethex.o)
 .ARM.attributes
                0x00002c06       0x32 c:/users/riedle/nds/devkitpro/devkitarm/bin/../lib/gcc/arm-none-eabi/4.7.1/../../../../arm-none-eabi/lib/thumb\libg.a(lib_a-gdtoa-hexnan.o)
 .ARM.attributes
                0x00002c38       0x32 c:/users/riedle/nds/devkitpro/devkitarm/bin/../lib/gcc/arm-none-eabi/4.7.1/../../../../arm-none-eabi/lib/thumb\libg.a(lib_a-gettzinfo.o)
 .ARM.attributes
                0x00002c6a       0x32 c:/users/riedle/nds/devkitpro/devkitarm/bin/../lib/gcc/arm-none-eabi/4.7.1/../../../../arm-none-eabi/lib/thumb\libg.a(lib_a-iswspace.o)
 .ARM.attributes
                0x00002c9c       0x32 c:/users/riedle/nds/devkitpro/devkitarm/bin/../lib/gcc/arm-none-eabi/4.7.1/../../../../arm-none-eabi/lib/thumb\libg.a(lib_a-jp2uc.o)
 .ARM.attributes
                0x00002cce       0x32 c:/users/riedle/nds/devkitpro/devkitarm/bin/../lib/gcc/arm-none-eabi/4.7.1/../../../../arm-none-eabi/lib/thumb\libg.a(lib_a-labs.o)
 .ARM.attributes
                0x00002d00       0x32 c:/users/riedle/nds/devkitpro/devkitarm/bin/../lib/gcc/arm-none-eabi/4.7.1/../../../../arm-none-eabi/lib/thumb\libg.a(lib_a-ldpart.o)
 .ARM.attributes
                0x00002d32       0x32 c:/users/riedle/nds/devkitpro/devkitarm/bin/../lib/gcc/arm-none-eabi/4.7.1/../../../../arm-none-eabi/lib/thumb\libg.a(lib_a-mbrtowc.o)
 .ARM.attributes
                0x00002d64       0x32 c:/users/riedle/nds/devkitpro/devkitarm/bin/../lib/gcc/arm-none-eabi/4.7.1/../../../../arm-none-eabi/lib/thumb\libg.a(lib_a-mprec.o)
 .ARM.attributes
                0x00002d96       0x32 c:/users/riedle/nds/devkitpro/devkitarm/bin/../lib/gcc/arm-none-eabi/4.7.1/../../../../arm-none-eabi/lib/thumb\libg.a(lib_a-sccl.o)
 .ARM.attributes
                0x00002dc8       0x32 c:/users/riedle/nds/devkitpro/devkitarm/bin/../lib/gcc/arm-none-eabi/4.7.1/../../../../arm-none-eabi/lib/thumb\libg.a(lib_a-sf_nan.o)
 .ARM.attributes
                0x00002dfa       0x32 c:/users/riedle/nds/devkitpro/devkitarm/bin/../lib/gcc/arm-none-eabi/4.7.1/../../../../arm-none-eabi/lib/thumb\libg.a(lib_a-sniprintf.o)
 .ARM.attributes
                0x00002e2c       0x32 c:/users/riedle/nds/devkitpro/devkitarm/bin/../lib/gcc/arm-none-eabi/4.7.1/../../../../arm-none-eabi/lib/thumb\libg.a(lib_a-strtoll_r.o)
 .ARM.attributes
                0x00002e5e       0x32 c:/users/riedle/nds/devkitpro/devkitarm/bin/../lib/gcc/arm-none-eabi/4.7.1/../../../../arm-none-eabi/lib/thumb\libg.a(lib_a-strtoull_r.o)
 .ARM.attributes
                0x00002e90       0x32 c:/users/riedle/nds/devkitpro/devkitarm/bin/../lib/gcc/arm-none-eabi/4.7.1/../../../../arm-none-eabi/lib/thumb\libg.a(lib_a-svfiprintf.o)
 .ARM.attributes
                0x00002ec2       0x32 c:/users/riedle/nds/devkitpro/devkitarm/bin/../lib/gcc/arm-none-eabi/4.7.1/../../../../arm-none-eabi/lib/thumb\libg.a(lib_a-sysclose.o)
 .ARM.attributes
                0x00002ef4       0x32 c:/users/riedle/nds/devkitpro/devkitarm/bin/../lib/gcc/arm-none-eabi/4.7.1/../../../../arm-none-eabi/lib/thumb\libg.a(lib_a-sysfstat.o)
 .ARM.attributes
                0x00002f26       0x32 c:/users/riedle/nds/devkitpro/devkitarm/bin/../lib/gcc/arm-none-eabi/4.7.1/../../../../arm-none-eabi/lib/thumb\libg.a(lib_a-sysopen.o)
 .ARM.attributes
                0x00002f58       0x32 c:/users/riedle/nds/devkitpro/devkitarm/bin/../lib/gcc/arm-none-eabi/4.7.1/../../../../arm-none-eabi/lib/thumb\libg.a(lib_a-sysread.o)
 .ARM.attributes
                0x00002f8a       0x32 c:/users/riedle/nds/devkitpro/devkitarm/bin/../lib/gcc/arm-none-eabi/4.7.1/../../../../arm-none-eabi/lib/thumb\libg.a(lib_a-wcsnrtombs.o)
 .ARM.attributes
                0x00002fbc       0x32 c:/users/riedle/nds/devkitpro/devkitarm/bin/../lib/gcc/arm-none-eabi/4.7.1/../../../../arm-none-eabi/lib/thumb\libg.a(lib_a-callocr.o)
 .ARM.attributes
                0x00002fee       0x32 c:/users/riedle/nds/devkitpro/devkitarm/bin/../lib/gcc/arm-none-eabi/4.7.1/../../../../arm-none-eabi/lib/thumb\libsysbase.a(iosupport.o)
 .ARM.attributes
                0x00003020       0x32 c:/users/riedle/nds/devkitpro/devkitarm/bin/../lib/gcc/arm-none-eabi/4.7.1/../../../../arm-none-eabi/lib/thumb\libsysbase.a(close.o)
 .ARM.attributes
                0x00003052       0x32 c:/users/riedle/nds/devkitpro/devkitarm/bin/../lib/gcc/arm-none-eabi/4.7.1/../../../../arm-none-eabi/lib/thumb\libsysbase.a(fstat.o)
 .ARM.attributes
                0x00003084       0x32 c:/users/riedle/nds/devkitpro/devkitarm/bin/../lib/gcc/arm-none-eabi/4.7.1/../../../../arm-none-eabi/lib/thumb\libsysbase.a(getpid.o)
 .ARM.attributes
                0x000030b6       0x32 c:/users/riedle/nds/devkitpro/devkitarm/bin/../lib/gcc/arm-none-eabi/4.7.1/../../../../arm-none-eabi/lib/thumb\libsysbase.a(isatty.o)
 .ARM.attributes
                0x000030e8       0x32 c:/users/riedle/nds/devkitpro/devkitarm/bin/../lib/gcc/arm-none-eabi/4.7.1/../../../../arm-none-eabi/lib/thumb\libsysbase.a(kill.o)
 .ARM.attributes
                0x0000311a       0x32 c:/users/riedle/nds/devkitpro/devkitarm/bin/../lib/gcc/arm-none-eabi/4.7.1/../../../../arm-none-eabi/lib/thumb\libsysbase.a(lseek.o)
 .ARM.attributes
                0x0000314c       0x32 c:/users/riedle/nds/devkitpro/devkitarm/bin/../lib/gcc/arm-none-eabi/4.7.1/../../../../arm-none-eabi/lib/thumb\libsysbase.a(open.o)
 .ARM.attributes
                0x0000317e       0x32 c:/users/riedle/nds/devkitpro/devkitarm/bin/../lib/gcc/arm-none-eabi/4.7.1/../../../../arm-none-eabi/lib/thumb\libsysbase.a(read.o)
 .ARM.attributes
                0x000031b0       0x32 c:/users/riedle/nds/devkitpro/devkitarm/bin/../lib/gcc/arm-none-eabi/4.7.1/../../../../arm-none-eabi/lib/thumb\libsysbase.a(sbrk.o)
 .ARM.attributes
                0x000031e2       0x32 c:/users/riedle/nds/devkitpro/devkitarm/bin/../lib/gcc/arm-none-eabi/4.7.1/../../../../arm-none-eabi/lib/thumb\libsysbase.a(times.o)
 .ARM.attributes
                0x00003214       0x32 c:/users/riedle/nds/devkitpro/devkitarm/bin/../lib/gcc/arm-none-eabi/4.7.1/../../../../arm-none-eabi/lib/thumb\libsysbase.a(unlink.o)
 .ARM.attributes
                0x00003246       0x32 c:/users/riedle/nds/devkitpro/devkitarm/bin/../lib/gcc/arm-none-eabi/4.7.1/../../../../arm-none-eabi/lib/thumb\libsysbase.a(write.o)
 .ARM.attributes
                0x00003278       0x32 c:/users/riedle/nds/devkitpro/devkitarm/bin/../lib/gcc/arm-none-eabi/4.7.1/../../../../arm-none-eabi/lib/thumb\libsysbase.a(_exit.o)
 .ARM.attributes
                0x000032aa       0x32 c:/users/riedle/nds/devkitpro/devkitarm/bin/../lib/gcc/arm-none-eabi/4.7.1/../../../../arm-none-eabi/lib/thumb\libsysbase.a(malloc_vars.o)
 .ARM.attributes
                0x000032dc       0x32 c:/users/riedle/nds/devkitpro/devkitarm/bin/../lib/gcc/arm-none-eabi/4.7.1/../../../../arm-none-eabi/lib/thumb\libsysbase.a(rename.o)
 .ARM.attributes
                0x0000330e       0x32 c:/users/riedle/nds/devkitpro/devkitarm/bin/../lib/gcc/arm-none-eabi/4.7.1/../../../../arm-none-eabi/lib/thumb\libsysbase.a(build_argv.o)
 .ARM.attributes
                0x00003340       0x32 c:/users/riedle/nds/devkitpro/devkitarm/bin/../lib/gcc/arm-none-eabi/4.7.1/../../../../arm-none-eabi/lib/thumb\libsysbase.a(syscall_support.o)
 .ARM.attributes
                0x00003372       0x32 c:/users/riedle/nds/devkitpro/devkitarm/bin/../lib/gcc/arm-none-eabi/4.7.1/../../../../arm-none-eabi/lib/thumb\libsysbase.a(handle_manager.o)
 .ARM.attributes
                0x000033a4       0x1a c:/users/riedle/nds/devkitpro/devkitarm/bin/../lib/gcc/arm-none-eabi/4.7.1/thumb\libgcc.a(_arm_truncdfsf2.o)
 .ARM.attributes
                0x000033be       0x1a c:/users/riedle/nds/devkitpro/devkitarm/bin/../lib/gcc/arm-none-eabi/4.7.1/thumb\libgcc.a(_aeabi_uldivmod.o)
 .ARM.attributes
                0x000033d8       0x32 c:/users/riedle/nds/devkitpro/devkitarm/bin/../lib/gcc/arm-none-eabi/4.7.1/thumb\libgcc.a(_muldi3.o)
 .ARM.attributes
                0x0000340a       0x32 c:/users/riedle/nds/devkitpro/devkitarm/bin/../lib/gcc/arm-none-eabi/4.7.1/thumb\libgcc.a(bpabi.o)
 .ARM.attributes
                0x0000343c       0x32 c:/users/riedle/nds/devkitpro/devkitarm/bin/../lib/gcc/arm-none-eabi/4.7.1/thumb\libgcc.a(_divdi3.o)
 .ARM.attributes
                0x0000346e       0x32 c:/users/riedle/nds/devkitpro/devkitarm/bin/../lib/gcc/arm-none-eabi/4.7.1/thumb\libgcc.a(_udivdi3.o)
 .ARM.attributes
                0x000034a0       0x1a c:/users/riedle/nds/devkitpro/devkitarm/bin/../lib/gcc/arm-none-eabi/4.7.1/thumb\libgcc.a(_clzsi2.o)
 .ARM.attributes
                0x000034ba       0x32 c:/users/riedle/nds/devkitpro/devkitarm/bin/../lib/gcc/arm-none-eabi/4.7.1/thumb/crtend.o
 .ARM.attributes
                0x000034ec       0x18 c:/users/riedle/nds/devkitpro/devkitarm/bin/../lib/gcc/arm-none-eabi/4.7.1/thumb/crtn.o

.debug
 *(.debug)

.line
 *(.line)

.debug_srcinfo
 *(.debug_srcinfo)

.debug_sfnames
 *(.debug_sfnames)

.debug_aranges  0x00000000      0x630
 *(.debug_aranges)
 .debug_aranges
                0x00000000       0x68 main.o
 .debug_aranges
                0x00000068       0x20 lapi.o
 .debug_aranges
                0x00000088       0x20 lauxlib.o
 .debug_aranges
                0x000000a8       0x20 lbaselib.o
 .debug_aranges
                0x000000c8       0x20 lbitlib.o
 .debug_aranges
                0x000000e8       0x20 lcode.o
 .debug_aranges
                0x00000108       0x20 lcorolib.o
 .debug_aranges
                0x00000128       0x18 lctype.o
 .debug_aranges
                0x00000140       0x20 ldblib.o
 .debug_aranges
                0x00000160       0x20 ldebug.o
 .debug_aranges
                0x00000180       0x28 ldo.o
 .debug_aranges
                0x000001a8       0x20 ldump.o
 .debug_aranges
                0x000001c8       0x20 lfunc.o
 .debug_aranges
                0x000001e8       0x20 lgc.o
 .debug_aranges
                0x00000208       0x20 linit.o
 .debug_aranges
                0x00000228       0x20 liolib.o
 .debug_aranges
                0x00000248       0x28 llex.o
 .debug_aranges
                0x00000270       0x20 lmathlib.o
 .debug_aranges
                0x00000290       0x20 lmem.o
 .debug_aranges
                0x000002b0       0x20 loadlib.o
 .debug_aranges
                0x000002d0       0x20 lobject.o
 .debug_aranges
                0x000002f0       0x18 lopcodes.o
 .debug_aranges
                0x00000308       0x20 loslib.o
 .debug_aranges
                0x00000328       0x28 lparser.o
 .debug_aranges
                0x00000350       0x20 lstate.o
 .debug_aranges
                0x00000370       0x20 lstring.o
 .debug_aranges
                0x00000390       0x20 lstrlib.o
 .debug_aranges
                0x000003b0       0x20 ltable.o
 .debug_aranges
                0x000003d0       0x20 ltablib.o
 .debug_aranges
                0x000003f0       0x20 ltm.o
 .debug_aranges
                0x00000410       0x20 lundump.o
 .debug_aranges
                0x00000430       0x20 lvm.o
 .debug_aranges
                0x00000450       0x20 lzio.o
 .debug_aranges
                0x00000470       0x20 c:/Users/riedle/NDS/DEVKITPRO/libnds/lib\libnds9.a(console.o)
 .debug_aranges
                0x00000490       0x20 c:/Users/riedle/NDS/DEVKITPRO/libnds/lib\libnds9.a(initSystem.o)
 .debug_aranges
                0x000004b0       0x20 c:/Users/riedle/NDS/DEVKITPRO/libnds/lib\libnds9.a(fifosystem.o)
 .debug_aranges
                0x000004d0       0x20 c:/Users/riedle/NDS/DEVKITPRO/libnds/lib\libnds9.a(interrupts.o)
 .debug_aranges
                0x000004f0       0x20 c:/Users/riedle/NDS/DEVKITPRO/libnds/lib\libnds9.a(libnds_exit.arm.o)
 .debug_aranges
                0x00000510       0x20 c:/Users/riedle/NDS/DEVKITPRO/libnds/lib\libnds9.a(mpu_setup.o)
 .debug_aranges
                0x00000530       0x20 c:/Users/riedle/NDS/DEVKITPRO/libnds/lib\libnds9.a(biosCalls.o)
 .debug_aranges
                0x00000550       0x20 c:/Users/riedle/NDS/DEVKITPRO/libnds/lib\libnds9.a(debugprint.o)
 .debug_aranges
                0x00000570       0x20 c:/Users/riedle/NDS/DEVKITPRO/libnds/lib\libnds9.a(interruptDispatcher.o)
 .debug_aranges
                0x00000590       0x20 c:/Users/riedle/NDS/DEVKITPRO/libnds/lib\libnds9.a(swiSoftReset.o)
 .debug_aranges
                0x000005b0       0x20 c:/Users/riedle/NDS/DEVKITPRO/libnds/lib\libnds9.a(background.o)
 .debug_aranges
                0x000005d0       0x20 c:/Users/riedle/NDS/DEVKITPRO/libnds/lib\libnds9.a(system.o)
 .debug_aranges
                0x000005f0       0x20 c:/Users/riedle/NDS/DEVKITPRO/libnds/lib\libnds9.a(trig.o)
 .debug_aranges
                0x00000610       0x20 c:/Users/riedle/NDS/DEVKITPRO/libnds/lib\libnds9.a(video.o)

.debug_pubnames
 *(.debug_pubnames)

.debug_info     0x00000000    0x4e8c3
 *(.debug_info)
 .debug_info    0x00000000     0x1da2 main.o
 .debug_info    0x00001da2     0x46d6 lapi.o
 .debug_info    0x00006478     0x424f lauxlib.o
 .debug_info    0x0000a6c7     0x2c94 lbaselib.o
 .debug_info    0x0000d35b      0xb44 lbitlib.o
 .debug_info    0x0000de9f     0x4344 lcode.o
 .debug_info    0x000121e3      0xcd2 lcorolib.o
 .debug_info    0x00012eb5       0x82 lctype.o
 .debug_info    0x00012f37     0x2d14 ldblib.o
 .debug_info    0x00015c4b     0x26a7 ldebug.o
 .debug_info    0x000182f2     0x2b82 ldo.o
 .debug_info    0x0001ae74     0x18ea ldump.o
 .debug_info    0x0001c75e     0x1525 lfunc.o
 .debug_info    0x0001dc83     0x31e6 lgc.o
 .debug_info    0x00020e69      0x248 linit.o
 .debug_info    0x000210b1     0x323c liolib.o
 .debug_info    0x000242ed     0x2a13 llex.o
 .debug_info    0x00026d00     0x12cf lmathlib.o
 .debug_info    0x00027fcf     0x1219 lmem.o
 .debug_info    0x000291e8     0x28fe loadlib.o
 .debug_info    0x0002bae6     0x1bea lobject.o
 .debug_info    0x0002d6d0      0x1f7 lopcodes.o
 .debug_info    0x0002d8c7     0x1691 loslib.o
 .debug_info    0x0002ef58     0x6d0e lparser.o
 .debug_info    0x00035c66     0x1a7d lstate.o
 .debug_info    0x000376e3     0x175d lstring.o
 .debug_info    0x00038e40     0x31f6 lstrlib.o
 .debug_info    0x0003c036     0x2403 ltable.o
 .debug_info    0x0003e439     0x13e2 ltablib.o
 .debug_info    0x0003f81b     0x1231 ltm.o
 .debug_info    0x00040a4c     0x1d45 lundump.o
 .debug_info    0x00042791     0x39f3 lvm.o
 .debug_info    0x00046184     0x1252 lzio.o
 .debug_info    0x000473d6     0x2420 c:/Users/riedle/NDS/DEVKITPRO/libnds/lib\libnds9.a(console.o)
 .debug_info    0x000497f6     0x1030 c:/Users/riedle/NDS/DEVKITPRO/libnds/lib\libnds9.a(initSystem.o)
 .debug_info    0x0004a826     0x1546 c:/Users/riedle/NDS/DEVKITPRO/libnds/lib\libnds9.a(fifosystem.o)
 .debug_info    0x0004bd6c      0x5b4 c:/Users/riedle/NDS/DEVKITPRO/libnds/lib\libnds9.a(interrupts.o)
 .debug_info    0x0004c320      0x323 c:/Users/riedle/NDS/DEVKITPRO/libnds/lib\libnds9.a(libnds_exit.arm.o)
 .debug_info    0x0004c643       0xc4 c:/Users/riedle/NDS/DEVKITPRO/libnds/lib\libnds9.a(mpu_setup.o)
 .debug_info    0x0004c707       0xbf c:/Users/riedle/NDS/DEVKITPRO/libnds/lib\libnds9.a(biosCalls.o)
 .debug_info    0x0004c7c6       0xc0 c:/Users/riedle/NDS/DEVKITPRO/libnds/lib\libnds9.a(debugprint.o)
 .debug_info    0x0004c886       0xc9 c:/Users/riedle/NDS/DEVKITPRO/libnds/lib\libnds9.a(interruptDispatcher.o)
 .debug_info    0x0004c94f       0xc2 c:/Users/riedle/NDS/DEVKITPRO/libnds/lib\libnds9.a(swiSoftReset.o)
 .debug_info    0x0004ca11      0x91d c:/Users/riedle/NDS/DEVKITPRO/libnds/lib\libnds9.a(background.o)
 .debug_info    0x0004d32e      0x91b c:/Users/riedle/NDS/DEVKITPRO/libnds/lib\libnds9.a(system.o)
 .debug_info    0x0004dc49      0x55c c:/Users/riedle/NDS/DEVKITPRO/libnds/lib\libnds9.a(trig.o)
 .debug_info    0x0004e1a5      0x71e c:/Users/riedle/NDS/DEVKITPRO/libnds/lib\libnds9.a(video.o)

.debug_abbrev   0x00000000     0x9359
 *(.debug_abbrev)
 .debug_abbrev  0x00000000      0x4dc main.o
 .debug_abbrev  0x000004dc      0x5df lapi.o
 .debug_abbrev  0x00000abb      0x536 lauxlib.o
 .debug_abbrev  0x00000ff1      0x426 lbaselib.o
 .debug_abbrev  0x00001417      0x1c6 lbitlib.o
 .debug_abbrev  0x000015dd      0x66c lcode.o
 .debug_abbrev  0x00001c49      0x271 lcorolib.o
 .debug_abbrev  0x00001eba       0x5d lctype.o
 .debug_abbrev  0x00001f17      0x41b ldblib.o
 .debug_abbrev  0x00002332      0x562 ldebug.o
 .debug_abbrev  0x00002894      0x550 ldo.o
 .debug_abbrev  0x00002de4      0x317 ldump.o
 .debug_abbrev  0x000030fb      0x291 lfunc.o
 .debug_abbrev  0x0000338c      0x4ea lgc.o
 .debug_abbrev  0x00003876      0x130 linit.o
 .debug_abbrev  0x000039a6      0x475 liolib.o
 .debug_abbrev  0x00003e1b      0x55b llex.o
 .debug_abbrev  0x00004376      0x1e5 lmathlib.o
 .debug_abbrev  0x0000455b      0x277 lmem.o
 .debug_abbrev  0x000047d2      0x3b6 loadlib.o
 .debug_abbrev  0x00004b88      0x407 lobject.o
 .debug_abbrev  0x00004f8f       0xa3 lopcodes.o
 .debug_abbrev  0x00005032      0x34f loslib.o
 .debug_abbrev  0x00005381      0x53a lparser.o
 .debug_abbrev  0x000058bb      0x428 lstate.o
 .debug_abbrev  0x00005ce3      0x36a lstring.o
 .debug_abbrev  0x0000604d      0x410 lstrlib.o
 .debug_abbrev  0x0000645d      0x515 ltable.o
 .debug_abbrev  0x00006972      0x23d ltablib.o
 .debug_abbrev  0x00006baf      0x274 ltm.o
 .debug_abbrev  0x00006e23      0x3a5 lundump.o
 .debug_abbrev  0x000071c8      0x534 lvm.o
 .debug_abbrev  0x000076fc      0x2ab lzio.o
 .debug_abbrev  0x000079a7      0x50d c:/Users/riedle/NDS/DEVKITPRO/libnds/lib\libnds9.a(console.o)
 .debug_abbrev  0x00007eb4      0x2dc c:/Users/riedle/NDS/DEVKITPRO/libnds/lib\libnds9.a(initSystem.o)
 .debug_abbrev  0x00008190      0x470 c:/Users/riedle/NDS/DEVKITPRO/libnds/lib\libnds9.a(fifosystem.o)
 .debug_abbrev  0x00008600      0x239 c:/Users/riedle/NDS/DEVKITPRO/libnds/lib\libnds9.a(interrupts.o)
 .debug_abbrev  0x00008839      0x175 c:/Users/riedle/NDS/DEVKITPRO/libnds/lib\libnds9.a(libnds_exit.arm.o)
 .debug_abbrev  0x000089ae       0x14 c:/Users/riedle/NDS/DEVKITPRO/libnds/lib\libnds9.a(mpu_setup.o)
 .debug_abbrev  0x000089c2       0x14 c:/Users/riedle/NDS/DEVKITPRO/libnds/lib\libnds9.a(biosCalls.o)
 .debug_abbrev  0x000089d6       0x14 c:/Users/riedle/NDS/DEVKITPRO/libnds/lib\libnds9.a(debugprint.o)
 .debug_abbrev  0x000089ea       0x14 c:/Users/riedle/NDS/DEVKITPRO/libnds/lib\libnds9.a(interruptDispatcher.o)
 .debug_abbrev  0x000089fe       0x14 c:/Users/riedle/NDS/DEVKITPRO/libnds/lib\libnds9.a(swiSoftReset.o)
 .debug_abbrev  0x00008a12      0x2d5 c:/Users/riedle/NDS/DEVKITPRO/libnds/lib\libnds9.a(background.o)
 .debug_abbrev  0x00008ce7      0x26a c:/Users/riedle/NDS/DEVKITPRO/libnds/lib\libnds9.a(system.o)
 .debug_abbrev  0x00008f51      0x1ff c:/Users/riedle/NDS/DEVKITPRO/libnds/lib\libnds9.a(trig.o)
 .debug_abbrev  0x00009150      0x209 c:/Users/riedle/NDS/DEVKITPRO/libnds/lib\libnds9.a(video.o)

.debug_line     0x00000000     0xae79
 *(.debug_line)
 .debug_line    0x00000000      0x4db main.o
 .debug_line    0x000004db      0x7c8 lapi.o
 .debug_line    0x00000ca3      0x628 lauxlib.o
 .debug_line    0x000012cb      0x490 lbaselib.o
 .debug_line    0x0000175b      0x1fc lbitlib.o
 .debug_line    0x00001957      0x6de lcode.o
 .debug_line    0x00002035      0x18e lcorolib.o
 .debug_line    0x000021c3       0x79 lctype.o
 .debug_line    0x0000223c      0x42e ldblib.o
 .debug_line    0x0000266a      0x4f0 ldebug.o
 .debug_line    0x00002b5a      0x71a ldo.o
 .debug_line    0x00003274      0x1cb ldump.o
 .debug_line    0x0000343f      0x1e5 lfunc.o
 .debug_line    0x00003624      0x7df lgc.o
 .debug_line    0x00003e03       0xae linit.o
 .debug_line    0x00003eb1      0x503 liolib.o
 .debug_line    0x000043b4      0x702 llex.o
 .debug_line    0x00004ab6      0x28f lmathlib.o
 .debug_line    0x00004d45      0x179 lmem.o
 .debug_line    0x00004ebe      0x3ce loadlib.o
 .debug_line    0x0000528c      0x402 lobject.o
 .debug_line    0x0000568e       0x89 lopcodes.o
 .debug_line    0x00005717      0x365 loslib.o
 .debug_line    0x00005a7c      0xc40 lparser.o
 .debug_line    0x000066bc      0x3b1 lstate.o
 .debug_line    0x00006a6d      0x2ae lstring.o
 .debug_line    0x00006d1b      0x733 lstrlib.o
 .debug_line    0x0000744e      0x3f2 ltable.o
 .debug_line    0x00007840      0x273 ltablib.o
 .debug_line    0x00007ab3      0x175 ltm.o
 .debug_line    0x00007c28      0x2f3 lundump.o
 .debug_line    0x00007f1b      0xa86 lvm.o
 .debug_line    0x000089a1      0x164 lzio.o
 .debug_line    0x00008b05      0x715 c:/Users/riedle/NDS/DEVKITPRO/libnds/lib\libnds9.a(console.o)
 .debug_line    0x0000921a      0x37e c:/Users/riedle/NDS/DEVKITPRO/libnds/lib\libnds9.a(initSystem.o)
 .debug_line    0x00009598      0x6c9 c:/Users/riedle/NDS/DEVKITPRO/libnds/lib\libnds9.a(fifosystem.o)
 .debug_line    0x00009c61      0x26e c:/Users/riedle/NDS/DEVKITPRO/libnds/lib\libnds9.a(interrupts.o)
 .debug_line    0x00009ecf      0x1cc c:/Users/riedle/NDS/DEVKITPRO/libnds/lib\libnds9.a(libnds_exit.arm.o)
 .debug_line    0x0000a09b      0x101 c:/Users/riedle/NDS/DEVKITPRO/libnds/lib\libnds9.a(mpu_setup.o)
 .debug_line    0x0000a19c       0xc3 c:/Users/riedle/NDS/DEVKITPRO/libnds/lib\libnds9.a(biosCalls.o)
 .debug_line    0x0000a25f       0x9f c:/Users/riedle/NDS/DEVKITPRO/libnds/lib\libnds9.a(debugprint.o)
 .debug_line    0x0000a2fe       0xc7 c:/Users/riedle/NDS/DEVKITPRO/libnds/lib\libnds9.a(interruptDispatcher.o)
 .debug_line    0x0000a3c5       0x97 c:/Users/riedle/NDS/DEVKITPRO/libnds/lib\libnds9.a(swiSoftReset.o)
 .debug_line    0x0000a45c      0x2b2 c:/Users/riedle/NDS/DEVKITPRO/libnds/lib\libnds9.a(background.o)
 .debug_line    0x0000a70e      0x286 c:/Users/riedle/NDS/DEVKITPRO/libnds/lib\libnds9.a(system.o)
 .debug_line    0x0000a994      0x2a4 c:/Users/riedle/NDS/DEVKITPRO/libnds/lib\libnds9.a(trig.o)
 .debug_line    0x0000ac38      0x241 c:/Users/riedle/NDS/DEVKITPRO/libnds/lib\libnds9.a(video.o)

.debug_frame    0x00000000     0x53b0
 *(.debug_frame)
 .debug_frame   0x00000000      0x138 main.o
 .debug_frame   0x00000138      0x884 lapi.o
 .debug_frame   0x000009bc      0x688 lauxlib.o
 .debug_frame   0x00001044      0x33c lbaselib.o
 .debug_frame   0x00001380      0x1d8 lbitlib.o
 .debug_frame   0x00001558      0x580 lcode.o
 .debug_frame   0x00001ad8       0xfc lcorolib.o
 .debug_frame   0x00001bd4      0x2c4 ldblib.o
 .debug_frame   0x00001e98      0x204 ldebug.o
 .debug_frame   0x0000209c      0x284 ldo.o
 .debug_frame   0x00002320       0xbc ldump.o
 .debug_frame   0x000023dc      0x11c lfunc.o
 .debug_frame   0x000024f8      0x3d8 lgc.o
 .debug_frame   0x000028d0       0x2c linit.o
 .debug_frame   0x000028fc      0x42c liolib.o
 .debug_frame   0x00002d28      0x1c8 llex.o
 .debug_frame   0x00002ef0      0x310 lmathlib.o
 .debug_frame   0x00003200       0x78 lmem.o
 .debug_frame   0x00003278      0x208 loadlib.o
 .debug_frame   0x00003480      0x144 lobject.o
 .debug_frame   0x000035c4      0x1a8 loslib.o
 .debug_frame   0x0000376c      0x5f0 lparser.o
 .debug_frame   0x00003d5c      0x144 lstate.o
 .debug_frame   0x00003ea0      0x10c lstring.o
 .debug_frame   0x00003fac      0x3b8 lstrlib.o
 .debug_frame   0x00004364      0x1fc ltable.o
 .debug_frame   0x00004560      0x170 ltablib.o
 .debug_frame   0x000046d0       0x68 ltm.o
 .debug_frame   0x00004738       0xfc lundump.o
 .debug_frame   0x00004834      0x268 lvm.o
 .debug_frame   0x00004a9c       0x78 lzio.o
 .debug_frame   0x00004b14      0x1ac c:/Users/riedle/NDS/DEVKITPRO/libnds/lib\libnds9.a(console.o)
 .debug_frame   0x00004cc0       0x2c c:/Users/riedle/NDS/DEVKITPRO/libnds/lib\libnds9.a(initSystem.o)
 .debug_frame   0x00004cec      0x2b8 c:/Users/riedle/NDS/DEVKITPRO/libnds/lib\libnds9.a(fifosystem.o)
 .debug_frame   0x00004fa4       0xb4 c:/Users/riedle/NDS/DEVKITPRO/libnds/lib\libnds9.a(interrupts.o)
 .debug_frame   0x00005058       0x38 c:/Users/riedle/NDS/DEVKITPRO/libnds/lib\libnds9.a(libnds_exit.arm.o)
 .debug_frame   0x00005090       0xa4 c:/Users/riedle/NDS/DEVKITPRO/libnds/lib\libnds9.a(background.o)
 .debug_frame   0x00005134       0xc8 c:/Users/riedle/NDS/DEVKITPRO/libnds/lib\libnds9.a(system.o)
 .debug_frame   0x000051fc       0xf0 c:/Users/riedle/NDS/DEVKITPRO/libnds/lib\libnds9.a(trig.o)
 .debug_frame   0x000052ec       0xc4 c:/Users/riedle/NDS/DEVKITPRO/libnds/lib\libnds9.a(video.o)

.debug_str      0x00000000     0x6be2
 *(.debug_str)
 .debug_str     0x00000000      0xaa9 main.o
                                0xbc4 (size before relaxing)
 .debug_str     0x00000aa9      0xa3a lapi.o
                                0xded (size before relaxing)
 .debug_str     0x000014e3      0x770 lauxlib.o
                                0xcc8 (size before relaxing)
 .debug_str     0x00001c53      0x1d8 lbaselib.o
                                0x9d9 (size before relaxing)
 .debug_str     0x00001e2b       0xcb lbitlib.o
                                0x274 (size before relaxing)
 .debug_str     0x00001ef6      0x6ae lcode.o
                                0xd4c (size before relaxing)
 .debug_str     0x000025a4       0xdc lcorolib.o
                                0x378 (size before relaxing)
 .debug_str     0x00002680       0x34 lctype.o
                                 0x9f (size before relaxing)
 .debug_str     0x000026b4      0x203 ldblib.o
                                0xa50 (size before relaxing)
 .debug_str     0x000028b7      0x13e ldebug.o
                                0xa55 (size before relaxing)
 .debug_str     0x000029f5      0x254 ldo.o
                                0xb5e (size before relaxing)
 .debug_str     0x00002c49       0xbc ldump.o
                                0x644 (size before relaxing)
 .debug_str     0x00002d05       0xad lfunc.o
                                0x664 (size before relaxing)
 .debug_str     0x00002db2      0x329 lgc.o
                                0xabe (size before relaxing)
 .debug_str     0x000030db       0x35 linit.o
                                0x166 (size before relaxing)
 .debug_str     0x00003110      0x20d liolib.o
                                0x9f1 (size before relaxing)
 .debug_str     0x0000331d      0x374 llex.o
                                0xbc0 (size before relaxing)
 .debug_str     0x00003691      0x164 lmathlib.o
                                0x393 (size before relaxing)
 .debug_str     0x000037f5       0x44 lmem.o
                                0x618 (size before relaxing)
 .debug_str     0x00003839      0x182 loadlib.o
                                0x86f (size before relaxing)
 .debug_str     0x000039bb       0xac lobject.o
                                0x7ec (size before relaxing)
 .debug_str     0x00003a67       0x74 lopcodes.o
                                0x267 (size before relaxing)
 .debug_str     0x00003adb      0x12a loslib.o
                                0x4e2 (size before relaxing)
 .debug_str     0x00003c05      0x440 lparser.o
                               0x127f (size before relaxing)
 .debug_str     0x00004045       0x8c lstate.o
                                0x76a (size before relaxing)
 .debug_str     0x000040d1       0x6c lstring.o
                                0x6b2 (size before relaxing)
 .debug_str     0x0000413d      0x27a lstrlib.o
                                0x677 (size before relaxing)
 .debug_str     0x000043b7      0x13d ltable.o
                                0x880 (size before relaxing)
 .debug_str     0x000044f4       0x80 ltablib.o
                                0x33c (size before relaxing)
 .debug_str     0x00004574       0x49 ltm.o
                                0x6d7 (size before relaxing)
 .debug_str     0x000045bd       0xc3 lundump.o
                                0x721 (size before relaxing)
 .debug_str     0x00004680       0xe5 lvm.o
                                0xb5c (size before relaxing)
 .debug_str     0x00004765       0x26 lzio.o
                                0x635 (size before relaxing)
 .debug_str     0x0000478b      0x9be c:/Users/riedle/NDS/DEVKITPRO/libnds/lib\libnds9.a(console.o)
                               0x10c6 (size before relaxing)
 .debug_str     0x00005149      0x449 c:/Users/riedle/NDS/DEVKITPRO/libnds/lib\libnds9.a(initSystem.o)
                                0xa02 (size before relaxing)
 .debug_str     0x00005592      0x4cd c:/Users/riedle/NDS/DEVKITPRO/libnds/lib\libnds9.a(fifosystem.o)
                                0x793 (size before relaxing)
 .debug_str     0x00005a5f      0x109 c:/Users/riedle/NDS/DEVKITPRO/libnds/lib\libnds9.a(interrupts.o)
                                0x382 (size before relaxing)
 .debug_str     0x00005b68      0x142 c:/Users/riedle/NDS/DEVKITPRO/libnds/lib\libnds9.a(libnds_exit.arm.o)
                                0x2c6 (size before relaxing)
 .debug_str     0x00005caa      0x2c9 c:/Users/riedle/NDS/DEVKITPRO/libnds/lib\libnds9.a(background.o)
                                0x687 (size before relaxing)
 .debug_str     0x00005f73      0x28f c:/Users/riedle/NDS/DEVKITPRO/libnds/lib\libnds9.a(system.o)
                                0x5dd (size before relaxing)
 .debug_str     0x00006202       0xe6 c:/Users/riedle/NDS/DEVKITPRO/libnds/lib\libnds9.a(trig.o)
                                0x1e9 (size before relaxing)
 .debug_str     0x000062e8      0x8fa c:/Users/riedle/NDS/DEVKITPRO/libnds/lib\libnds9.a(video.o)
                                0xb3e (size before relaxing)

.debug_loc      0x00000000    0x2e6a6
 *(.debug_loc)
 .debug_loc     0x00000000      0x81b main.o
 .debug_loc     0x0000081b     0x410d lapi.o
 .debug_loc     0x00004928     0x2be1 lauxlib.o
 .debug_loc     0x00007509     0x1381 lbaselib.o
 .debug_loc     0x0000888a      0xa50 lbitlib.o
 .debug_loc     0x000092da     0x37ff lcode.o
 .debug_loc     0x0000cad9      0x4a7 lcorolib.o
 .debug_loc     0x0000cf80     0x102c ldblib.o
 .debug_loc     0x0000dfac     0x2160 ldebug.o
 .debug_loc     0x0001010c     0x1e45 ldo.o
 .debug_loc     0x00011f51      0x833 ldump.o
 .debug_loc     0x00012784      0x590 lfunc.o
 .debug_loc     0x00012d14     0x27b7 lgc.o
 .debug_loc     0x000154cb       0x6f linit.o
 .debug_loc     0x0001553a     0x18e2 liolib.o
 .debug_loc     0x00016e1c     0x117e llex.o
 .debug_loc     0x00017f9a      0xb01 lmathlib.o
 .debug_loc     0x00018a9b      0x30f lmem.o
 .debug_loc     0x00018daa      0xd63 loadlib.o
 .debug_loc     0x00019b0d     0x1100 lobject.o
 .debug_loc     0x0001ac0d      0x913 loslib.o
 .debug_loc     0x0001b520     0x4d0a lparser.o
 .debug_loc     0x0002022a      0x640 lstate.o
 .debug_loc     0x0002086a      0x927 lstring.o
 .debug_loc     0x00021191     0x2f4e lstrlib.o
 .debug_loc     0x000240df     0x1a94 ltable.o
 .debug_loc     0x00025b73      0x972 ltablib.o
 .debug_loc     0x000264e5      0x20c ltm.o
 .debug_loc     0x000266f1      0x92b lundump.o
 .debug_loc     0x0002701c     0x397e lvm.o
 .debug_loc     0x0002a99a      0x26c lzio.o
 .debug_loc     0x0002ac06      0xffa c:/Users/riedle/NDS/DEVKITPRO/libnds/lib\libnds9.a(console.o)
 .debug_loc     0x0002bc00       0x3f c:/Users/riedle/NDS/DEVKITPRO/libnds/lib\libnds9.a(initSystem.o)
 .debug_loc     0x0002bc3f     0x149c c:/Users/riedle/NDS/DEVKITPRO/libnds/lib\libnds9.a(fifosystem.o)
 .debug_loc     0x0002d0db      0x22a c:/Users/riedle/NDS/DEVKITPRO/libnds/lib\libnds9.a(interrupts.o)
 .debug_loc     0x0002d305       0x78 c:/Users/riedle/NDS/DEVKITPRO/libnds/lib\libnds9.a(libnds_exit.arm.o)
 .debug_loc     0x0002d37d      0x3dc c:/Users/riedle/NDS/DEVKITPRO/libnds/lib\libnds9.a(background.o)
 .debug_loc     0x0002d759      0x2cf c:/Users/riedle/NDS/DEVKITPRO/libnds/lib\libnds9.a(system.o)
 .debug_loc     0x0002da28      0x9dd c:/Users/riedle/NDS/DEVKITPRO/libnds/lib\libnds9.a(trig.o)
 .debug_loc     0x0002e405      0x2a1 c:/Users/riedle/NDS/DEVKITPRO/libnds/lib\libnds9.a(video.o)

.debug_macinfo
 *(.debug_macinfo)

.debug_weaknames
 *(.debug_weaknames)

.debug_funcnames
 *(.debug_funcnames)

.debug_typenames
 *(.debug_typenames)

.debug_varnames
 *(.debug_varnames)

.stack          0x00080000        0x0
                0x00080000                _stack = .
 *(.stack)
LOAD c:/users/riedle/nds/devkitpro/devkitarm/bin/../lib/gcc/arm-none-eabi/4.7.1/../../../../arm-none-eabi/lib/thumb/ds_arm9_crt0.o
LOAD c:/users/riedle/nds/devkitpro/devkitarm/bin/../lib/gcc/arm-none-eabi/4.7.1/thumb/crti.o
LOAD c:/users/riedle/nds/devkitpro/devkitarm/bin/../lib/gcc/arm-none-eabi/4.7.1/thumb/crtbegin.o
LOAD main.o
LOAD lapi.o
LOAD lauxlib.o
LOAD lbaselib.o
LOAD lbitlib.o
LOAD lcode.o
LOAD lcorolib.o
LOAD lctype.o
LOAD ldblib.o
LOAD ldebug.o
LOAD ldo.o
LOAD ldump.o
LOAD lfunc.o
LOAD lgc.o
LOAD linit.o
LOAD liolib.o
LOAD llex.o
LOAD lmathlib.o
LOAD lmem.o
LOAD loadlib.o
LOAD lobject.o
LOAD lopcodes.o
LOAD loslib.o
LOAD lparser.o
LOAD lstate.o
LOAD lstring.o
LOAD lstrlib.o
LOAD ltable.o
LOAD ltablib.o
LOAD ltm.o
LOAD lundump.o
LOAD lvm.o
LOAD lzio.o
LOAD c:/Users/riedle/NDS/DEVKITPRO/libnds/lib\libnds9.a
LOAD c:/users/riedle/nds/devkitpro/devkitarm/bin/../lib/gcc/arm-none-eabi/4.7.1/../../../../arm-none-eabi/lib/thumb\libstdc++.a
LOAD c:/users/riedle/nds/devkitpro/devkitarm/bin/../lib/gcc/arm-none-eabi/4.7.1/../../../../arm-none-eabi/lib/thumb\libm.a
START GROUP
LOAD c:/users/riedle/nds/devkitpro/devkitarm/bin/../lib/gcc/arm-none-eabi/4.7.1/thumb\libgcc.a
LOAD c:/users/riedle/nds/devkitpro/devkitarm/bin/../lib/gcc/arm-none-eabi/4.7.1/../../../../arm-none-eabi/lib/thumb\libg.a
LOAD c:/users/riedle/nds/devkitpro/devkitarm/bin/../lib/gcc/arm-none-eabi/4.7.1/../../../../arm-none-eabi/lib/thumb\libc.a
LOAD c:/users/riedle/nds/devkitpro/devkitarm/bin/../lib/gcc/arm-none-eabi/4.7.1/../../../../arm-none-eabi/lib/thumb\libsysbase.a
END GROUP
LOAD c:/users/riedle/nds/devkitpro/devkitarm/bin/../lib/gcc/arm-none-eabi/4.7.1/thumb/crtend.o
LOAD c:/users/riedle/nds/devkitpro/devkitarm/bin/../lib/gcc/arm-none-eabi/4.7.1/thumb/crtn.o
OUTPUT(c:/Users/riedle/NDS/Lua/Lua.elf elf32-littlearm)

.debug_ranges   0x00000000     0x4ea0
 .debug_ranges  0x00000000      0x1a0 main.o
 .debug_ranges  0x000001a0      0x330 lapi.o
 .debug_ranges  0x000004d0       0x80 lauxlib.o
 .debug_ranges  0x00000550      0x150 lbaselib.o
 .debug_ranges  0x000006a0       0x70 lbitlib.o
 .debug_ranges  0x00000710      0x558 lcode.o
 .debug_ranges  0x00000c68       0x48 lcorolib.o
 .debug_ranges  0x00000cb0       0x78 ldblib.o
 .debug_ranges  0x00000d28      0x4f8 ldebug.o
 .debug_ranges  0x00001220      0x340 ldo.o
 .debug_ranges  0x00001560      0x120 ldump.o
 .debug_ranges  0x00001680       0x50 lfunc.o
 .debug_ranges  0x000016d0      0x748 lgc.o
 .debug_ranges  0x00001e18      0x130 liolib.o
 .debug_ranges  0x00001f48      0x400 llex.o
 .debug_ranges  0x00002348       0x48 lmathlib.o
 .debug_ranges  0x00002390       0x98 loadlib.o
 .debug_ranges  0x00002428      0x220 lobject.o
 .debug_ranges  0x00002648       0xf8 loslib.o
 .debug_ranges  0x00002740      0x9f8 lparser.o
 .debug_ranges  0x00003138       0xe0 lstate.o
 .debug_ranges  0x00003218       0x90 lstring.o
 .debug_ranges  0x000032a8      0x530 lstrlib.o
 .debug_ranges  0x000037d8      0x380 ltable.o
 .debug_ranges  0x00003b58       0x18 ltablib.o
 .debug_ranges  0x00003b70      0x170 lundump.o
 .debug_ranges  0x00003ce0      0x860 lvm.o
 .debug_ranges  0x00004540       0x18 lzio.o
 .debug_ranges  0x00004558      0x238 c:/Users/riedle/NDS/DEVKITPRO/libnds/lib\libnds9.a(console.o)
 .debug_ranges  0x00004790      0x490 c:/Users/riedle/NDS/DEVKITPRO/libnds/lib\libnds9.a(fifosystem.o)
 .debug_ranges  0x00004c20      0x120 c:/Users/riedle/NDS/DEVKITPRO/libnds/lib\libnds9.a(interrupts.o)
 .debug_ranges  0x00004d40       0x78 c:/Users/riedle/NDS/DEVKITPRO/libnds/lib\libnds9.a(background.o)
 .debug_ranges  0x00004db8       0x70 c:/Users/riedle/NDS/DEVKITPRO/libnds/lib\libnds9.a(trig.o)
 .debug_ranges  0x00004e28       0x78 c:/Users/riedle/NDS/DEVKITPRO/libnds/lib\libnds9.a(video.o)
